
./zig-cache/test:     file format elf64-x86-64


Disassembly of section .text:

0000000000208000 <assert>:
/// In Debug and ReleaseSafe modes, calls to this function are always
/// generated, and the `unreachable` statement triggers a panic.
/// In ReleaseFast and ReleaseSmall modes, calls to this function can be
/// optimized away.
pub fn assert(ok: bool) void {
    if (!ok) {
  208000:	40 f6 c7 01          	test   dil,0x1
  208004:	74 01                	je     208007 <assert+0x7>
pub fn assert(ok: bool) void {
  208006:	c3                   	ret    
        // In ReleaseFast test mode, we still want assert(false) to crash, so
        // we insert an explicit call to @panic instead of unreachable.
        // TODO we should use `assertOrPanic` in tests and remove this logic.
        if (builtin.is_test) {
            @panic("assertion failure");
  208007:	50                   	push   rax
  208008:	e8 13 0d 00 00       	call   208d20 <panic>
  20800d:	0f 1f 00             	nop    DWORD PTR [rax]

0000000000208010 <init_vdso_clock_gettime>:
const linux = std.os.linux;
const cstr = std.cstr;
const mem = std.mem;

pub fn lookup(vername: []const u8, name: []const u8) usize {
    const vdso_addr = std.os.linux_aux_raw[std.elf.AT_SYSINFO_EHDR];
  208010:	55                   	push   rbp
  208011:	41 57                	push   r15
  208013:	41 56                	push   r14
  208015:	41 55                	push   r13
  208017:	41 54                	push   r12
  208019:	53                   	push   rbx
  20801a:	4c 8b 0d 27 91 01 00 	mov    r9,QWORD PTR [rip+0x19127]        # 221148 <linux_aux_raw+0x108>
    if (vdso_addr == 0) return 0;
  208021:	4d 85 c9             	test   r9,r9
  208024:	0f 84 53 05 00 00    	je     20857d <init_vdso_clock_gettime+0x56d>

    var maybe_dynv: ?[*]usize = null;
    var base: usize = @maxValue(usize);
    {
        var i: usize = 0;
        while (i < eh.e_phnum) : ({
  20802a:	41 0f b7 51 38       	movzx  edx,WORD PTR [r9+0x38]
  20802f:	48 85 d2             	test   rdx,rdx
  208032:	0f 84 45 05 00 00    	je     20857d <init_vdso_clock_gettime+0x56d>
  208038:	49 8b 59 20          	mov    rbx,QWORD PTR [r9+0x20]
    var ph_addr: usize = vdso_addr + eh.e_phoff;
  20803c:	4c 01 cb             	add    rbx,r9
  20803f:	41 0f b7 49 36       	movzx  ecx,WORD PTR [r9+0x36]
        while (i < eh.e_phnum) : ({
  208044:	48 8d 42 ff          	lea    rax,[rdx-0x1]
  208048:	89 d5                	mov    ebp,edx
  20804a:	83 e5 03             	and    ebp,0x3
  20804d:	48 83 f8 03          	cmp    rax,0x3
  208051:	73 18                	jae    20806b <init_vdso_clock_gettime+0x5b>
  208053:	49 c7 c0 ff ff ff ff 	mov    r8,0xffffffffffffffff
  20805a:	45 31 f6             	xor    r14d,r14d
            i += 1;
            ph_addr += eh.e_phentsize;
        }) {
            const this_ph = @intToPtr(*elf.Phdr, ph_addr);
            switch (this_ph.p_type) {
  20805d:	48 85 ed             	test   rbp,rbp
  208060:	0f 85 ec 00 00 00    	jne    208152 <init_vdso_clock_gettime+0x142>
  208066:	e9 29 01 00 00       	jmp    208194 <init_vdso_clock_gettime+0x184>
        while (i < eh.e_phnum) : ({
  20806b:	48 89 e8             	mov    rax,rbp
  20806e:	48 29 d0             	sub    rax,rdx
  208071:	49 c7 c0 ff ff ff ff 	mov    r8,0xffffffffffffffff
  208078:	45 31 f6             	xor    r14d,r14d
  20807b:	0f 1f 44 00 00       	nop    DWORD PTR [rax+rax*1+0x0]
  208080:	48 89 da             	mov    rdx,rbx
            switch (this_ph.p_type) {
  208083:	8b 1a                	mov    ebx,DWORD PTR [rdx]
  208085:	83 fb 02             	cmp    ebx,0x2
  208088:	74 66                	je     2080f0 <init_vdso_clock_gettime+0xe0>
  20808a:	83 fb 01             	cmp    ebx,0x1
  20808d:	75 0b                	jne    20809a <init_vdso_clock_gettime+0x8a>
  20808f:	4c 8b 42 08          	mov    r8,QWORD PTR [rdx+0x8]
                elf.PT_LOAD => base = vdso_addr + this_ph.p_offset - this_ph.p_vaddr,
  208093:	4d 01 c8             	add    r8,r9
  208096:	4c 2b 42 10          	sub    r8,QWORD PTR [rdx+0x10]
            switch (this_ph.p_type) {
  20809a:	8b 1c 0a             	mov    ebx,DWORD PTR [rdx+rcx*1]
            ph_addr += eh.e_phentsize;
  20809d:	48 01 ca             	add    rdx,rcx
            switch (this_ph.p_type) {
  2080a0:	83 fb 01             	cmp    ebx,0x1
  2080a3:	74 5d                	je     208102 <init_vdso_clock_gettime+0xf2>
  2080a5:	83 fb 02             	cmp    ebx,0x2
  2080a8:	75 07                	jne    2080b1 <init_vdso_clock_gettime+0xa1>
  2080aa:	4c 8b 72 08          	mov    r14,QWORD PTR [rdx+0x8]
                elf.PT_DYNAMIC => maybe_dynv = @intToPtr([*]usize, vdso_addr + this_ph.p_offset),
  2080ae:	4d 01 ce             	add    r14,r9
            switch (this_ph.p_type) {
  2080b1:	8b 1c 11             	mov    ebx,DWORD PTR [rcx+rdx*1]
            ph_addr += eh.e_phentsize;
  2080b4:	48 01 ca             	add    rdx,rcx
            switch (this_ph.p_type) {
  2080b7:	83 fb 01             	cmp    ebx,0x1
  2080ba:	74 5c                	je     208118 <init_vdso_clock_gettime+0x108>
  2080bc:	83 fb 02             	cmp    ebx,0x2
  2080bf:	75 07                	jne    2080c8 <init_vdso_clock_gettime+0xb8>
  2080c1:	4c 8b 72 08          	mov    r14,QWORD PTR [rdx+0x8]
                elf.PT_DYNAMIC => maybe_dynv = @intToPtr([*]usize, vdso_addr + this_ph.p_offset),
  2080c5:	4d 01 ce             	add    r14,r9
            switch (this_ph.p_type) {
  2080c8:	8b 1c 11             	mov    ebx,DWORD PTR [rcx+rdx*1]
            ph_addr += eh.e_phentsize;
  2080cb:	48 01 ca             	add    rdx,rcx
            switch (this_ph.p_type) {
  2080ce:	83 fb 01             	cmp    ebx,0x1
  2080d1:	74 5b                	je     20812e <init_vdso_clock_gettime+0x11e>
  2080d3:	83 fb 02             	cmp    ebx,0x2
  2080d6:	75 07                	jne    2080df <init_vdso_clock_gettime+0xcf>
  2080d8:	4c 8b 72 08          	mov    r14,QWORD PTR [rdx+0x8]
                elf.PT_DYNAMIC => maybe_dynv = @intToPtr([*]usize, vdso_addr + this_ph.p_offset),
  2080dc:	4d 01 ce             	add    r14,r9
        while (i < eh.e_phnum) : ({
  2080df:	48 8d 1c 0a          	lea    rbx,[rdx+rcx*1]
  2080e3:	48 83 c0 04          	add    rax,0x4
  2080e7:	75 97                	jne    208080 <init_vdso_clock_gettime+0x70>
  2080e9:	eb 5c                	jmp    208147 <init_vdso_clock_gettime+0x137>
  2080eb:	0f 1f 44 00 00       	nop    DWORD PTR [rax+rax*1+0x0]
  2080f0:	4c 8b 72 08          	mov    r14,QWORD PTR [rdx+0x8]
                elf.PT_DYNAMIC => maybe_dynv = @intToPtr([*]usize, vdso_addr + this_ph.p_offset),
  2080f4:	4d 01 ce             	add    r14,r9
            switch (this_ph.p_type) {
  2080f7:	8b 1c 0a             	mov    ebx,DWORD PTR [rdx+rcx*1]
            ph_addr += eh.e_phentsize;
  2080fa:	48 01 ca             	add    rdx,rcx
            switch (this_ph.p_type) {
  2080fd:	83 fb 01             	cmp    ebx,0x1
  208100:	75 a3                	jne    2080a5 <init_vdso_clock_gettime+0x95>
  208102:	4c 8b 42 08          	mov    r8,QWORD PTR [rdx+0x8]
                elf.PT_LOAD => base = vdso_addr + this_ph.p_offset - this_ph.p_vaddr,
  208106:	4d 01 c8             	add    r8,r9
  208109:	4c 2b 42 10          	sub    r8,QWORD PTR [rdx+0x10]
            switch (this_ph.p_type) {
  20810d:	8b 1c 11             	mov    ebx,DWORD PTR [rcx+rdx*1]
            ph_addr += eh.e_phentsize;
  208110:	48 01 ca             	add    rdx,rcx
            switch (this_ph.p_type) {
  208113:	83 fb 01             	cmp    ebx,0x1
  208116:	75 a4                	jne    2080bc <init_vdso_clock_gettime+0xac>
  208118:	4c 8b 42 08          	mov    r8,QWORD PTR [rdx+0x8]
                elf.PT_LOAD => base = vdso_addr + this_ph.p_offset - this_ph.p_vaddr,
  20811c:	4d 01 c8             	add    r8,r9
  20811f:	4c 2b 42 10          	sub    r8,QWORD PTR [rdx+0x10]
            switch (this_ph.p_type) {
  208123:	8b 1c 11             	mov    ebx,DWORD PTR [rcx+rdx*1]
            ph_addr += eh.e_phentsize;
  208126:	48 01 ca             	add    rdx,rcx
            switch (this_ph.p_type) {
  208129:	83 fb 01             	cmp    ebx,0x1
  20812c:	75 a5                	jne    2080d3 <init_vdso_clock_gettime+0xc3>
  20812e:	4c 8b 42 08          	mov    r8,QWORD PTR [rdx+0x8]
                elf.PT_LOAD => base = vdso_addr + this_ph.p_offset - this_ph.p_vaddr,
  208132:	4d 01 c8             	add    r8,r9
  208135:	4c 2b 42 10          	sub    r8,QWORD PTR [rdx+0x10]
        while (i < eh.e_phnum) : ({
  208139:	48 8d 1c 0a          	lea    rbx,[rdx+rcx*1]
  20813d:	48 83 c0 04          	add    rax,0x4
  208141:	0f 85 39 ff ff ff    	jne    208080 <init_vdso_clock_gettime+0x70>
  208147:	48 01 ca             	add    rdx,rcx
  20814a:	48 89 d3             	mov    rbx,rdx
            switch (this_ph.p_type) {
  20814d:	48 85 ed             	test   rbp,rbp
  208150:	74 42                	je     208194 <init_vdso_clock_gettime+0x184>
  208152:	48 f7 dd             	neg    rbp
  208155:	66 66 2e 0f 1f 84 00 	data16 nop WORD PTR cs:[rax+rax*1+0x0]
  20815c:	00 00 00 00 
  208160:	8b 03                	mov    eax,DWORD PTR [rbx]
  208162:	83 f8 01             	cmp    eax,0x1
  208165:	74 19                	je     208180 <init_vdso_clock_gettime+0x170>
  208167:	83 f8 02             	cmp    eax,0x2
  20816a:	75 07                	jne    208173 <init_vdso_clock_gettime+0x163>
  20816c:	4c 8b 73 08          	mov    r14,QWORD PTR [rbx+0x8]
                elf.PT_DYNAMIC => maybe_dynv = @intToPtr([*]usize, vdso_addr + this_ph.p_offset),
  208170:	4d 01 ce             	add    r14,r9
            ph_addr += eh.e_phentsize;
  208173:	48 01 cb             	add    rbx,rcx
        while (i < eh.e_phnum) : ({
  208176:	48 83 c5 01          	add    rbp,0x1
  20817a:	75 e4                	jne    208160 <init_vdso_clock_gettime+0x150>
  20817c:	eb 16                	jmp    208194 <init_vdso_clock_gettime+0x184>
  20817e:	66 90                	xchg   ax,ax
  208180:	4c 8b 43 08          	mov    r8,QWORD PTR [rbx+0x8]
                elf.PT_LOAD => base = vdso_addr + this_ph.p_offset - this_ph.p_vaddr,
  208184:	4d 01 c8             	add    r8,r9
  208187:	4c 2b 43 10          	sub    r8,QWORD PTR [rbx+0x10]
            ph_addr += eh.e_phentsize;
  20818b:	48 01 cb             	add    rbx,rcx
        while (i < eh.e_phnum) : ({
  20818e:	48 83 c5 01          	add    rbp,0x1
  208192:	75 cc                	jne    208160 <init_vdso_clock_gettime+0x150>
                else => {},
            }
        }
    }
    const dynv = maybe_dynv orelse return 0;
    if (base == @maxValue(usize)) return 0;
  208194:	49 83 f8 ff          	cmp    r8,0xffffffffffffffff
    const dynv = maybe_dynv orelse return 0;
  208198:	0f 84 df 03 00 00    	je     20857d <init_vdso_clock_gettime+0x56d>
  20819e:	4d 85 f6             	test   r14,r14
  2081a1:	0f 84 d6 03 00 00    	je     20857d <init_vdso_clock_gettime+0x56d>
    var maybe_versym: ?[*]u16 = null;
    var maybe_verdef: ?*elf.Verdef = null;

    {
        var i: usize = 0;
        while (dynv[i] != 0) : (i += 2) {
  2081a7:	49 8b 16             	mov    rdx,QWORD PTR [r14]
  2081aa:	48 85 d2             	test   rdx,rdx
  2081ad:	0f 84 ca 03 00 00    	je     20857d <init_vdso_clock_gettime+0x56d>
            const p = base + dynv[i + 1];
  2081b3:	49 83 c6 10          	add    r14,0x10
  2081b7:	45 31 ff             	xor    r15d,r15d
  2081ba:	45 31 db             	xor    r11d,r11d
  2081bd:	45 31 d2             	xor    r10d,r10d
  2081c0:	31 ed                	xor    ebp,ebp
  2081c2:	45 31 ed             	xor    r13d,r13d
  2081c5:	66 66 2e 0f 1f 84 00 	data16 nop WORD PTR cs:[rax+rax*1+0x0]
  2081cc:	00 00 00 00 
  2081d0:	49 8b 4e f8          	mov    rcx,QWORD PTR [r14-0x8]
  2081d4:	4c 01 c1             	add    rcx,r8
            switch (dynv[i]) {
  2081d7:	48 83 fa 05          	cmp    rdx,0x5
  2081db:	7e 33                	jle    208210 <init_vdso_clock_gettime+0x200>
  2081dd:	48 83 fa 06          	cmp    rdx,0x6
  2081e1:	74 4b                	je     20822e <init_vdso_clock_gettime+0x21e>
  2081e3:	48 81 fa f0 ff ff 6f 	cmp    rdx,0x6ffffff0
  2081ea:	74 53                	je     20823f <init_vdso_clock_gettime+0x22f>
  2081ec:	48 81 fa fc ff ff 6f 	cmp    rdx,0x6ffffffc
  2081f3:	75 2b                	jne    208220 <init_vdso_clock_gettime+0x210>
  2081f5:	49 89 cb             	mov    r11,rcx
        while (dynv[i] != 0) : (i += 2) {
  2081f8:	49 8b 16             	mov    rdx,QWORD PTR [r14]
  2081fb:	49 83 c6 10          	add    r14,0x10
  2081ff:	48 85 d2             	test   rdx,rdx
  208202:	75 cc                	jne    2081d0 <init_vdso_clock_gettime+0x1c0>
  208204:	eb 5d                	jmp    208263 <init_vdso_clock_gettime+0x253>
  208206:	66 2e 0f 1f 84 00 00 	nop    WORD PTR cs:[rax+rax*1+0x0]
  20820d:	00 00 00 
            switch (dynv[i]) {
  208210:	48 83 fa 04          	cmp    rdx,0x4
  208214:	74 3a                	je     208250 <init_vdso_clock_gettime+0x240>
  208216:	48 83 fa 05          	cmp    rdx,0x5
  20821a:	75 04                	jne    208220 <init_vdso_clock_gettime+0x210>
  20821c:	49 89 cf             	mov    r15,rcx
  20821f:	90                   	nop
        while (dynv[i] != 0) : (i += 2) {
  208220:	49 8b 16             	mov    rdx,QWORD PTR [r14]
  208223:	49 83 c6 10          	add    r14,0x10
  208227:	48 85 d2             	test   rdx,rdx
  20822a:	75 a4                	jne    2081d0 <init_vdso_clock_gettime+0x1c0>
  20822c:	eb 35                	jmp    208263 <init_vdso_clock_gettime+0x253>
  20822e:	49 89 cd             	mov    r13,rcx
  208231:	49 8b 16             	mov    rdx,QWORD PTR [r14]
  208234:	49 83 c6 10          	add    r14,0x10
  208238:	48 85 d2             	test   rdx,rdx
  20823b:	75 93                	jne    2081d0 <init_vdso_clock_gettime+0x1c0>
  20823d:	eb 24                	jmp    208263 <init_vdso_clock_gettime+0x253>
  20823f:	49 89 ca             	mov    r10,rcx
  208242:	49 8b 16             	mov    rdx,QWORD PTR [r14]
  208245:	49 83 c6 10          	add    r14,0x10
  208249:	48 85 d2             	test   rdx,rdx
  20824c:	75 82                	jne    2081d0 <init_vdso_clock_gettime+0x1c0>
  20824e:	eb 13                	jmp    208263 <init_vdso_clock_gettime+0x253>
  208250:	48 89 cd             	mov    rbp,rcx
  208253:	49 8b 16             	mov    rdx,QWORD PTR [r14]
  208256:	49 83 c6 10          	add    r14,0x10
  20825a:	48 85 d2             	test   rdx,rdx
  20825d:	0f 85 6d ff ff ff    	jne    2081d0 <init_vdso_clock_gettime+0x1c0>
        }
    }

    const strings = maybe_strings orelse return 0;
    const syms = maybe_syms orelse return 0;
    const hashtab = maybe_hashtab orelse return 0;
  208263:	48 85 ed             	test   rbp,rbp
    const strings = maybe_strings orelse return 0;
  208266:	0f 84 11 03 00 00    	je     20857d <init_vdso_clock_gettime+0x56d>
  20826c:	4d 85 ed             	test   r13,r13
  20826f:	0f 84 08 03 00 00    	je     20857d <init_vdso_clock_gettime+0x56d>
  208275:	4d 85 ff             	test   r15,r15
  208278:	0f 84 ff 02 00 00    	je     20857d <init_vdso_clock_gettime+0x56d>
    if (maybe_verdef == null) maybe_versym = null;
  20827e:	4d 85 db             	test   r11,r11
  208281:	4d 0f 44 d3          	cmove  r10,r11

    const OK_TYPES = (1 << elf.STT_NOTYPE | 1 << elf.STT_OBJECT | 1 << elf.STT_FUNC | 1 << elf.STT_COMMON);
    const OK_BINDS = (1 << elf.STB_GLOBAL | 1 << elf.STB_WEAK | 1 << elf.STB_GNU_UNIQUE);

    var i: usize = 0;
    while (i < hashtab[1]) : (i += 1) {
  208285:	44 8b 4d 04          	mov    r9d,DWORD PTR [rbp+0x4]
  208289:	4d 85 c9             	test   r9,r9
  20828c:	0f 84 eb 02 00 00    	je     20857d <init_vdso_clock_gettime+0x56d>
  208292:	31 d2                	xor    edx,edx
  208294:	4d 85 d2             	test   r10,r10
  208297:	0f 84 e5 01 00 00    	je     208482 <init_vdso_clock_gettime+0x472>
  20829d:	41 bc 27 00 00 00    	mov    r12d,0x27
  2082a3:	41 be 06 04 00 00    	mov    r14d,0x406
  2082a9:	0f 1f 80 00 00 00 00 	nop    DWORD PTR [rax+0x0]
        if (0 == (u32(1) << @intCast(u5, syms[i].st_info & 0xf) & OK_TYPES)) continue;
  2082b0:	48 8d 0c 52          	lea    rcx,[rdx+rdx*2]
  2082b4:	41 8a 5c cd 04       	mov    bl,BYTE PTR [r13+rcx*8+0x4]
  2082b9:	89 d8                	mov    eax,ebx
  2082bb:	24 0f                	and    al,0xf
  2082bd:	0f b6 c0             	movzx  eax,al
  2082c0:	41 0f a3 c4          	bt     r12d,eax
  2082c4:	0f 83 a6 01 00 00    	jae    208470 <init_vdso_clock_gettime+0x460>
        if (0 == (u32(1) << @intCast(u5, syms[i].st_info >> 4) & OK_BINDS)) continue;
  2082ca:	c0 eb 04             	shr    bl,0x4
  2082cd:	0f b6 c3             	movzx  eax,bl
  2082d0:	41 0f a3 c6          	bt     r14d,eax
  2082d4:	0f 83 96 01 00 00    	jae    208470 <init_vdso_clock_gettime+0x460>
        if (0 == syms[i].st_shndx) continue;
  2082da:	66 41 83 7c cd 06 00 	cmp    WORD PTR [r13+rcx*8+0x6],0x0
  2082e1:	0f 84 89 01 00 00    	je     208470 <init_vdso_clock_gettime+0x460>
        if (!mem.eql(u8, name, cstr.toSliceConst(strings + syms[i].st_name))) continue;
  2082e7:	41 8b 6c cd 00       	mov    ebp,DWORD PTR [r13+rcx*8+0x0]
  2082ec:	4c 01 fd             	add    rbp,r15
  2082ef:	48 c7 c1 eb ff ff ff 	mov    rcx,0xffffffffffffffeb
  2082f6:	66 2e 0f 1f 84 00 00 	nop    WORD PTR cs:[rax+rax*1+0x0]
  2082fd:	00 00 00 
    return true;
}

pub fn len(comptime T: type, ptr: [*]const T) usize {
    var count: usize = 0;
    while (ptr[count] != 0) : (count += 1) {}
  208300:	80 7c 0d 15 00       	cmp    BYTE PTR [rbp+rcx*1+0x15],0x0
  208305:	48 8d 49 01          	lea    rcx,[rcx+0x1]
  208309:	75 f5                	jne    208300 <init_vdso_clock_gettime+0x2f0>
    if (a.len != b.len) return false;
  20830b:	48 85 c9             	test   rcx,rcx
  20830e:	0f 85 5c 01 00 00    	jne    208470 <init_vdso_clock_gettime+0x460>
        if (b[index] != item) return false;
  208314:	80 7d 00 5f          	cmp    BYTE PTR [rbp+0x0],0x5f
  208318:	0f 85 52 01 00 00    	jne    208470 <init_vdso_clock_gettime+0x460>
  20831e:	80 7d 01 5f          	cmp    BYTE PTR [rbp+0x1],0x5f
  208322:	0f 85 48 01 00 00    	jne    208470 <init_vdso_clock_gettime+0x460>
  208328:	80 7d 02 76          	cmp    BYTE PTR [rbp+0x2],0x76
  20832c:	0f 85 3e 01 00 00    	jne    208470 <init_vdso_clock_gettime+0x460>
  208332:	80 7d 03 64          	cmp    BYTE PTR [rbp+0x3],0x64
  208336:	0f 85 34 01 00 00    	jne    208470 <init_vdso_clock_gettime+0x460>
  20833c:	80 7d 04 73          	cmp    BYTE PTR [rbp+0x4],0x73
  208340:	0f 85 2a 01 00 00    	jne    208470 <init_vdso_clock_gettime+0x460>
  208346:	80 7d 05 6f          	cmp    BYTE PTR [rbp+0x5],0x6f
  20834a:	0f 85 20 01 00 00    	jne    208470 <init_vdso_clock_gettime+0x460>
  208350:	80 7d 06 5f          	cmp    BYTE PTR [rbp+0x6],0x5f
  208354:	0f 85 16 01 00 00    	jne    208470 <init_vdso_clock_gettime+0x460>
  20835a:	80 7d 07 63          	cmp    BYTE PTR [rbp+0x7],0x63
  20835e:	0f 85 0c 01 00 00    	jne    208470 <init_vdso_clock_gettime+0x460>
  208364:	80 7d 08 6c          	cmp    BYTE PTR [rbp+0x8],0x6c
  208368:	0f 85 02 01 00 00    	jne    208470 <init_vdso_clock_gettime+0x460>
  20836e:	80 7d 09 6f          	cmp    BYTE PTR [rbp+0x9],0x6f
  208372:	0f 85 f8 00 00 00    	jne    208470 <init_vdso_clock_gettime+0x460>
  208378:	80 7d 0a 63          	cmp    BYTE PTR [rbp+0xa],0x63
  20837c:	0f 85 ee 00 00 00    	jne    208470 <init_vdso_clock_gettime+0x460>
  208382:	80 7d 0b 6b          	cmp    BYTE PTR [rbp+0xb],0x6b
  208386:	0f 85 e4 00 00 00    	jne    208470 <init_vdso_clock_gettime+0x460>
  20838c:	80 7d 0c 5f          	cmp    BYTE PTR [rbp+0xc],0x5f
  208390:	0f 85 da 00 00 00    	jne    208470 <init_vdso_clock_gettime+0x460>
  208396:	80 7d 0d 67          	cmp    BYTE PTR [rbp+0xd],0x67
  20839a:	0f 85 d0 00 00 00    	jne    208470 <init_vdso_clock_gettime+0x460>
  2083a0:	80 7d 0e 65          	cmp    BYTE PTR [rbp+0xe],0x65
  2083a4:	0f 85 c6 00 00 00    	jne    208470 <init_vdso_clock_gettime+0x460>
  2083aa:	80 7d 0f 74          	cmp    BYTE PTR [rbp+0xf],0x74
  2083ae:	0f 85 bc 00 00 00    	jne    208470 <init_vdso_clock_gettime+0x460>
  2083b4:	80 7d 10 74          	cmp    BYTE PTR [rbp+0x10],0x74
  2083b8:	0f 85 b2 00 00 00    	jne    208470 <init_vdso_clock_gettime+0x460>
  2083be:	80 7d 11 69          	cmp    BYTE PTR [rbp+0x11],0x69
  2083c2:	0f 85 a8 00 00 00    	jne    208470 <init_vdso_clock_gettime+0x460>
  2083c8:	80 7d 12 6d          	cmp    BYTE PTR [rbp+0x12],0x6d
  2083cc:	0f 85 9e 00 00 00    	jne    208470 <init_vdso_clock_gettime+0x460>
  2083d2:	80 7d 13 65          	cmp    BYTE PTR [rbp+0x13],0x65
  2083d6:	0f 85 94 00 00 00    	jne    208470 <init_vdso_clock_gettime+0x460>
        if (maybe_versym) |versym| {
            if (!checkver(maybe_verdef.?, versym[i], vername, strings))
  2083dc:	41 0f b7 2c 52       	movzx  ebp,WORD PTR [r10+rdx*2]
  2083e1:	4c 89 d9             	mov    rcx,r11

fn checkver(def_arg: *elf.Verdef, vsym_arg: i32, vername: []const u8, strings: [*]u8) bool {
    var def = def_arg;
    const vsym = @bitCast(u32, vsym_arg) & 0x7fff;
    while (true) {
        if (0 == (def.vd_flags & elf.VER_FLG_BASE) and (def.vd_ndx & 0x7fff) == vsym)
  2083e4:	f6 41 02 01          	test   BYTE PTR [rcx+0x2],0x1
  2083e8:	75 1c                	jne    208406 <init_vdso_clock_gettime+0x3f6>
  2083ea:	eb 09                	jmp    2083f5 <init_vdso_clock_gettime+0x3e5>
            break;
        if (def.vd_next == 0)
            return false;
        def = @intToPtr(*elf.Verdef, @ptrToInt(def) + def.vd_next);
  2083ec:	48 01 d9             	add    rcx,rbx
        if (0 == (def.vd_flags & elf.VER_FLG_BASE) and (def.vd_ndx & 0x7fff) == vsym)
  2083ef:	f6 41 02 01          	test   BYTE PTR [rcx+0x2],0x1
  2083f3:	75 11                	jne    208406 <init_vdso_clock_gettime+0x3f6>
  2083f5:	0f b7 41 04          	movzx  eax,WORD PTR [rcx+0x4]
  2083f9:	66 31 e8             	xor    ax,bp
  2083fc:	25 ff 7f 00 00       	and    eax,0x7fff
  208401:	66 85 c0             	test   ax,ax
  208404:	74 0a                	je     208410 <init_vdso_clock_gettime+0x400>
        if (def.vd_next == 0)
  208406:	8b 59 10             	mov    ebx,DWORD PTR [rcx+0x10]
  208409:	48 85 db             	test   rbx,rbx
  20840c:	75 de                	jne    2083ec <init_vdso_clock_gettime+0x3dc>
  20840e:	eb 60                	jmp    208470 <init_vdso_clock_gettime+0x460>
    }
    const aux = @intToPtr(*elf.Verdaux, @ptrToInt(def) + def.vd_aux);
  208410:	8b 41 0c             	mov    eax,DWORD PTR [rcx+0xc]
    return mem.eql(u8, vername, cstr.toSliceConst(strings + aux.vda_name));
  208413:	8b 2c 08             	mov    ebp,DWORD PTR [rax+rcx*1]
  208416:	4c 01 fd             	add    rbp,r15
  208419:	48 c7 c1 f6 ff ff ff 	mov    rcx,0xfffffffffffffff6
    while (ptr[count] != 0) : (count += 1) {}
  208420:	80 7c 0d 0a 00       	cmp    BYTE PTR [rbp+rcx*1+0xa],0x0
  208425:	48 8d 49 01          	lea    rcx,[rcx+0x1]
  208429:	75 f5                	jne    208420 <init_vdso_clock_gettime+0x410>
    if (a.len != b.len) return false;
  20842b:	48 85 c9             	test   rcx,rcx
  20842e:	75 40                	jne    208470 <init_vdso_clock_gettime+0x460>
        if (b[index] != item) return false;
  208430:	80 7d 00 4c          	cmp    BYTE PTR [rbp+0x0],0x4c
  208434:	75 3a                	jne    208470 <init_vdso_clock_gettime+0x460>
  208436:	80 7d 01 49          	cmp    BYTE PTR [rbp+0x1],0x49
  20843a:	75 34                	jne    208470 <init_vdso_clock_gettime+0x460>
  20843c:	80 7d 02 4e          	cmp    BYTE PTR [rbp+0x2],0x4e
  208440:	75 2e                	jne    208470 <init_vdso_clock_gettime+0x460>
  208442:	80 7d 03 55          	cmp    BYTE PTR [rbp+0x3],0x55
  208446:	75 28                	jne    208470 <init_vdso_clock_gettime+0x460>
  208448:	80 7d 04 58          	cmp    BYTE PTR [rbp+0x4],0x58
  20844c:	75 22                	jne    208470 <init_vdso_clock_gettime+0x460>
  20844e:	80 7d 05 5f          	cmp    BYTE PTR [rbp+0x5],0x5f
  208452:	75 1c                	jne    208470 <init_vdso_clock_gettime+0x460>
  208454:	80 7d 06 32          	cmp    BYTE PTR [rbp+0x6],0x32
  208458:	75 16                	jne    208470 <init_vdso_clock_gettime+0x460>
  20845a:	80 7d 07 2e          	cmp    BYTE PTR [rbp+0x7],0x2e
  20845e:	75 10                	jne    208470 <init_vdso_clock_gettime+0x460>
  208460:	80 7d 08 36          	cmp    BYTE PTR [rbp+0x8],0x36
            if (!checkver(maybe_verdef.?, versym[i], vername, strings))
  208464:	0f 84 37 01 00 00    	je     2085a1 <init_vdso_clock_gettime+0x591>
  20846a:	66 0f 1f 44 00 00    	nop    WORD PTR [rax+rax*1+0x0]
    while (i < hashtab[1]) : (i += 1) {
  208470:	48 83 c2 01          	add    rdx,0x1
  208474:	4c 39 ca             	cmp    rdx,r9
  208477:	0f 82 33 fe ff ff    	jb     2082b0 <init_vdso_clock_gettime+0x2a0>
  20847d:	e9 fb 00 00 00       	jmp    20857d <init_vdso_clock_gettime+0x56d>
  208482:	bd 27 00 00 00       	mov    ebp,0x27
  208487:	41 ba 06 04 00 00    	mov    r10d,0x406
  20848d:	0f 1f 00             	nop    DWORD PTR [rax]
        if (0 == (u32(1) << @intCast(u5, syms[i].st_info & 0xf) & OK_TYPES)) continue;
  208490:	48 8d 0c 52          	lea    rcx,[rdx+rdx*2]
  208494:	41 8a 44 cd 04       	mov    al,BYTE PTR [r13+rcx*8+0x4]
  208499:	89 c3                	mov    ebx,eax
  20849b:	80 e3 0f             	and    bl,0xf
  20849e:	0f b6 db             	movzx  ebx,bl
  2084a1:	0f a3 dd             	bt     ebp,ebx
  2084a4:	0f 83 c6 00 00 00    	jae    208570 <init_vdso_clock_gettime+0x560>
        if (0 == (u32(1) << @intCast(u5, syms[i].st_info >> 4) & OK_BINDS)) continue;
  2084aa:	c0 e8 04             	shr    al,0x4
  2084ad:	0f b6 c0             	movzx  eax,al
  2084b0:	41 0f a3 c2          	bt     r10d,eax
  2084b4:	0f 83 b6 00 00 00    	jae    208570 <init_vdso_clock_gettime+0x560>
        if (0 == syms[i].st_shndx) continue;
  2084ba:	66 41 83 7c cd 06 00 	cmp    WORD PTR [r13+rcx*8+0x6],0x0
  2084c1:	0f 84 a9 00 00 00    	je     208570 <init_vdso_clock_gettime+0x560>
        if (!mem.eql(u8, name, cstr.toSliceConst(strings + syms[i].st_name))) continue;
  2084c7:	41 8b 5c cd 00       	mov    ebx,DWORD PTR [r13+rcx*8+0x0]
  2084cc:	4c 01 fb             	add    rbx,r15
  2084cf:	48 c7 c1 eb ff ff ff 	mov    rcx,0xffffffffffffffeb
  2084d6:	66 2e 0f 1f 84 00 00 	nop    WORD PTR cs:[rax+rax*1+0x0]
  2084dd:	00 00 00 
    while (ptr[count] != 0) : (count += 1) {}
  2084e0:	80 7c 0b 15 00       	cmp    BYTE PTR [rbx+rcx*1+0x15],0x0
  2084e5:	48 8d 49 01          	lea    rcx,[rcx+0x1]
  2084e9:	75 f5                	jne    2084e0 <init_vdso_clock_gettime+0x4d0>
    if (a.len != b.len) return false;
  2084eb:	48 85 c9             	test   rcx,rcx
  2084ee:	0f 85 7c 00 00 00    	jne    208570 <init_vdso_clock_gettime+0x560>
        if (b[index] != item) return false;
  2084f4:	80 3b 5f             	cmp    BYTE PTR [rbx],0x5f
  2084f7:	75 77                	jne    208570 <init_vdso_clock_gettime+0x560>
  2084f9:	80 7b 01 5f          	cmp    BYTE PTR [rbx+0x1],0x5f
  2084fd:	75 71                	jne    208570 <init_vdso_clock_gettime+0x560>
  2084ff:	80 7b 02 76          	cmp    BYTE PTR [rbx+0x2],0x76
  208503:	75 6b                	jne    208570 <init_vdso_clock_gettime+0x560>
  208505:	80 7b 03 64          	cmp    BYTE PTR [rbx+0x3],0x64
  208509:	75 65                	jne    208570 <init_vdso_clock_gettime+0x560>
  20850b:	80 7b 04 73          	cmp    BYTE PTR [rbx+0x4],0x73
  20850f:	75 5f                	jne    208570 <init_vdso_clock_gettime+0x560>
  208511:	80 7b 05 6f          	cmp    BYTE PTR [rbx+0x5],0x6f
  208515:	75 59                	jne    208570 <init_vdso_clock_gettime+0x560>
  208517:	80 7b 06 5f          	cmp    BYTE PTR [rbx+0x6],0x5f
  20851b:	75 53                	jne    208570 <init_vdso_clock_gettime+0x560>
  20851d:	80 7b 07 63          	cmp    BYTE PTR [rbx+0x7],0x63
  208521:	75 4d                	jne    208570 <init_vdso_clock_gettime+0x560>
  208523:	80 7b 08 6c          	cmp    BYTE PTR [rbx+0x8],0x6c
  208527:	75 47                	jne    208570 <init_vdso_clock_gettime+0x560>
  208529:	80 7b 09 6f          	cmp    BYTE PTR [rbx+0x9],0x6f
  20852d:	75 41                	jne    208570 <init_vdso_clock_gettime+0x560>
  20852f:	80 7b 0a 63          	cmp    BYTE PTR [rbx+0xa],0x63
  208533:	75 3b                	jne    208570 <init_vdso_clock_gettime+0x560>
  208535:	80 7b 0b 6b          	cmp    BYTE PTR [rbx+0xb],0x6b
  208539:	75 35                	jne    208570 <init_vdso_clock_gettime+0x560>
  20853b:	80 7b 0c 5f          	cmp    BYTE PTR [rbx+0xc],0x5f
  20853f:	75 2f                	jne    208570 <init_vdso_clock_gettime+0x560>
  208541:	80 7b 0d 67          	cmp    BYTE PTR [rbx+0xd],0x67
  208545:	75 29                	jne    208570 <init_vdso_clock_gettime+0x560>
  208547:	80 7b 0e 65          	cmp    BYTE PTR [rbx+0xe],0x65
  20854b:	75 23                	jne    208570 <init_vdso_clock_gettime+0x560>
  20854d:	80 7b 0f 74          	cmp    BYTE PTR [rbx+0xf],0x74
  208551:	75 1d                	jne    208570 <init_vdso_clock_gettime+0x560>
  208553:	80 7b 10 74          	cmp    BYTE PTR [rbx+0x10],0x74
  208557:	75 17                	jne    208570 <init_vdso_clock_gettime+0x560>
  208559:	80 7b 11 69          	cmp    BYTE PTR [rbx+0x11],0x69
  20855d:	75 11                	jne    208570 <init_vdso_clock_gettime+0x560>
  20855f:	80 7b 12 6d          	cmp    BYTE PTR [rbx+0x12],0x6d
  208563:	75 0b                	jne    208570 <init_vdso_clock_gettime+0x560>
  208565:	80 7b 13 65          	cmp    BYTE PTR [rbx+0x13],0x65
  208569:	74 36                	je     2085a1 <init_vdso_clock_gettime+0x591>
  20856b:	0f 1f 44 00 00       	nop    DWORD PTR [rax+rax*1+0x0]
    while (i < hashtab[1]) : (i += 1) {
  208570:	48 83 c2 01          	add    rdx,0x1
  208574:	4c 39 ca             	cmp    rdx,r9
  208577:	0f 82 13 ff ff ff    	jb     208490 <init_vdso_clock_gettime+0x480>
}
var vdso_clock_gettime = init_vdso_clock_gettime;
extern fn init_vdso_clock_gettime(clk: i32, ts: *timespec) usize {
    const addr = vdso.lookup(VDSO_CGT_VER, VDSO_CGT_SYM);
    var f = @intToPtr(@typeOf(init_vdso_clock_gettime), addr);
    _ = @cmpxchgStrong(@typeOf(init_vdso_clock_gettime), &vdso_clock_gettime, init_vdso_clock_gettime, f, builtin.AtomicOrder.Monotonic, builtin.AtomicOrder.Monotonic);
  20857d:	48 8d 05 8c fa ff ff 	lea    rax,[rip+0xfffffffffffffa8c]        # 208010 <init_vdso_clock_gettime>
  208584:	31 c9                	xor    ecx,ecx
  208586:	f0 48 0f b1 0d 89 4a 	lock cmpxchg QWORD PTR [rip+0x14a89],rcx        # 21d018 <vdso_clock_gettime>
  20858d:	01 00 
    if (@ptrToInt(f) == 0) return @bitCast(usize, isize(-ENOSYS));
  20858f:	48 c7 c0 da ff ff ff 	mov    rax,0xffffffffffffffda
  208596:	5b                   	pop    rbx
  208597:	41 5c                	pop    r12
  208599:	41 5d                	pop    r13
  20859b:	41 5e                	pop    r14
  20859d:	41 5f                	pop    r15
  20859f:	5d                   	pop    rbp
  2085a0:	c3                   	ret    
        return base + syms[i].st_value;
  2085a1:	48 8d 04 52          	lea    rax,[rdx+rdx*2]
  2085a5:	4d 03 44 c5 08       	add    r8,QWORD PTR [r13+rax*8+0x8]
    _ = @cmpxchgStrong(@typeOf(init_vdso_clock_gettime), &vdso_clock_gettime, init_vdso_clock_gettime, f, builtin.AtomicOrder.Monotonic, builtin.AtomicOrder.Monotonic);
  2085aa:	48 8d 05 5f fa ff ff 	lea    rax,[rip+0xfffffffffffffa5f]        # 208010 <init_vdso_clock_gettime>
  2085b1:	f0 4c 0f b1 05 5e 4a 	lock cmpxchg QWORD PTR [rip+0x14a5e],r8        # 21d018 <vdso_clock_gettime>
  2085b8:	01 00 
    if (@ptrToInt(f) == 0) return @bitCast(usize, isize(-ENOSYS));
  2085ba:	4d 85 c0             	test   r8,r8
  2085bd:	74 d0                	je     20858f <init_vdso_clock_gettime+0x57f>
    return f(clk, ts);
  2085bf:	5b                   	pop    rbx
  2085c0:	41 5c                	pop    r12
  2085c2:	41 5d                	pop    r13
  2085c4:	41 5e                	pop    r14
  2085c6:	41 5f                	pop    r15
  2085c8:	5d                   	pop    rbp
  2085c9:	41 ff e0             	jmp    r8
  2085cc:	0f 1f 40 00          	nop    DWORD PTR [rax+0x0]

00000000002085d0 <benchmark.add>:
            @intToFloat(f64, run_time_ns)/@intToFloat(f64, iterations),
        );
    }
};

test "benchmark.add" {
  2085d0:	41 57                	push   r15
  2085d2:	41 56                	push   r14
  2085d4:	41 55                	push   r13
  2085d6:	41 54                	push   r12
  2085d8:	53                   	push   rbx
  2085d9:	48 81 ec 80 00 00 00 	sub    rsp,0x80
    pub fn init() Mutex {
        return Mutex{ .lock = 0 };
    }

    pub fn acquire(self: *Mutex) Held {
        while (@atomicRmw(u8, &self.lock, builtin.AtomicRmwOp.Xchg, 1, AtomicOrder.SeqCst) != 0) {}
  2085e0:	b0 01                	mov    al,0x1
  2085e2:	86 05 28 8a 01 00    	xchg   BYTE PTR [rip+0x18a28],al        # 221010 <stderr_mutex>
  2085e8:	84 c0                	test   al,al
  2085ea:	75 f4                	jne    2085e0 <benchmark.add+0x10>
    if (stderr_stream) |st| {
  2085ec:	48 8b 3d 15 8a 01 00 	mov    rdi,QWORD PTR [rip+0x18a15]        # 221008 <stderr_stream>
  2085f3:	48 85 ff             	test   rdi,rdi
  2085f6:	74 09                	je     208601 <benchmark.add+0x31>
        pub const Error = WriteError;

        writeFn: fn (self: *Self, bytes: []const u8) Error!void,

        pub fn print(self: *Self, comptime format: []const u8, args: ...) !void {
            return std.fmt.format(self, Error, self.writeFn, format, args);
  2085f8:	48 8b 05 11 4a 01 00 	mov    rax,QWORD PTR [rip+0x14a11]        # 21d010 <stderr_file_out_stream+0x8>
  2085ff:	eb 34                	jmp    208635 <benchmark.add+0x65>
        stderr_file = try io.getStdErr();
  208601:	48 8d 05 f8 49 01 00 	lea    rax,[rip+0x149f8]        # 21d000 <stderr_file>
        stderr_file_out_stream = io.FileOutStream.init(&stderr_file);
  208608:	48 89 05 f9 49 01 00 	mov    QWORD PTR [rip+0x149f9],rax        # 21d008 <stderr_file_out_stream>
  20860f:	48 8d 05 ea 21 00 00 	lea    rax,[rip+0x21ea]        # 20a800 <FileOutStream_writeFn>
  208616:	48 89 05 f3 49 01 00 	mov    QWORD PTR [rip+0x149f3],rax        # 21d010 <stderr_file_out_stream+0x8>
        stderr_file = try io.getStdErr();
  20861d:	c7 05 d9 49 01 00 02 	mov    DWORD PTR [rip+0x149d9],0x2        # 21d000 <stderr_file>
  208624:	00 00 00 
        stderr_file_out_stream = io.FileOutStream.init(&stderr_file);
  208627:	48 8d 3d e2 49 01 00 	lea    rdi,[rip+0x149e2]        # 21d010 <stderr_file_out_stream+0x8>
        stderr_stream = st;
  20862e:	48 89 3d d3 89 01 00 	mov    QWORD PTR [rip+0x189d3],rdi        # 221008 <stderr_stream>
        if (state != State.Start) {
            @compileError("Incomplete format string: " ++ fmt);
        }
    }
    if (start_index < fmt.len) {
        try output(context, fmt[start_index..]);
  208635:	48 8d 35 ac 85 01 00 	lea    rsi,[rip+0x185ac]        # 220be8 <__unnamed_1>
  20863c:	ff d0                	call   rax
            assert(@atomicRmw(u8, &self.mutex.lock, builtin.AtomicRmwOp.Xchg, 0, AtomicOrder.SeqCst) == 1);
  20863e:	31 c0                	xor    eax,eax
  208640:	86 05 ca 89 01 00    	xchg   BYTE PTR [rip+0x189ca],al        # 221010 <stderr_mutex>
  208646:	3c 01                	cmp    al,0x1
    if (!ok) {
  208648:	0f 85 cc 06 00 00    	jne    208d1a <benchmark.add+0x74a>
  20864e:	66 90                	xchg   ax,ax
        while (@atomicRmw(u8, &self.lock, builtin.AtomicRmwOp.Xchg, 1, AtomicOrder.SeqCst) != 0) {}
  208650:	b0 01                	mov    al,0x1
  208652:	86 05 b8 89 01 00    	xchg   BYTE PTR [rip+0x189b8],al        # 221010 <stderr_mutex>
  208658:	84 c0                	test   al,al
  20865a:	75 f4                	jne    208650 <benchmark.add+0x80>
    if (stderr_stream) |st| {
  20865c:	48 8b 1d a5 89 01 00 	mov    rbx,QWORD PTR [rip+0x189a5]        # 221008 <stderr_stream>
  208663:	48 85 db             	test   rbx,rbx
  208666:	74 09                	je     208671 <benchmark.add+0xa1>
  208668:	4c 8b 35 a1 49 01 00 	mov    r14,QWORD PTR [rip+0x149a1]        # 21d010 <stderr_file_out_stream+0x8>
  20866f:	eb 34                	jmp    2086a5 <benchmark.add+0xd5>
        stderr_file = try io.getStdErr();
  208671:	48 8d 05 88 49 01 00 	lea    rax,[rip+0x14988]        # 21d000 <stderr_file>
        stderr_file_out_stream = io.FileOutStream.init(&stderr_file);
  208678:	48 89 05 89 49 01 00 	mov    QWORD PTR [rip+0x14989],rax        # 21d008 <stderr_file_out_stream>
  20867f:	4c 8d 35 7a 21 00 00 	lea    r14,[rip+0x217a]        # 20a800 <FileOutStream_writeFn>
  208686:	4c 89 35 83 49 01 00 	mov    QWORD PTR [rip+0x14983],r14        # 21d010 <stderr_file_out_stream+0x8>
        stderr_file = try io.getStdErr();
  20868d:	c7 05 69 49 01 00 02 	mov    DWORD PTR [rip+0x14969],0x2        # 21d000 <stderr_file>
  208694:	00 00 00 
        stderr_file_out_stream = io.FileOutStream.init(&stderr_file);
  208697:	48 8d 1d 72 49 01 00 	lea    rbx,[rip+0x14972]        # 21d010 <stderr_file_out_stream+0x8>
        stderr_stream = st;
  20869e:	48 89 1d 63 89 01 00 	mov    QWORD PTR [rip+0x18963],rbx        # 221008 <stderr_stream>
                        try output(context, fmt[start_index..i]);
  2086a5:	48 8d 35 7c 84 01 00 	lea    rsi,[rip+0x1847c]        # 220b28 <__unnamed_2>
  2086ac:	48 89 df             	mov    rdi,rbx
  2086af:	41 ff d6             	call   r14
  2086b2:	66 85 c0             	test   ax,ax
  2086b5:	0f 85 2e 01 00 00    	jne    2087e9 <benchmark.add+0x219>
    comptime Errors: type,
    output: fn (@typeOf(context), []const u8) Errors!void,
) Errors!void {
    // max_int_digits accounts for the minus sign. when printing an unsigned
    // number we don't need to do that.
    var buf: [max_int_digits - 1]u8 = undefined;
  2086bb:	c5 fc 10 05 6c e3 ff 	vmovups ymm0,YMMWORD PTR [rip+0xffffffffffffe36c]        # 206a2f <__unnamed_3+0x1f>
  2086c2:	ff 
  2086c3:	c5 fc 11 44 24 4f    	vmovups YMMWORD PTR [rsp+0x4f],ymm0
  2086c9:	c5 fe 6f 05 3f e3 ff 	vmovdqu ymm0,YMMWORD PTR [rip+0xffffffffffffe33f]        # 206a10 <__unnamed_3>
  2086d0:	ff 
  2086d1:	c5 fe 7f 44 24 30    	vmovdqu YMMWORD PTR [rsp+0x30],ymm0
    var index: usize = buf.len;

    while (true) {
        const digit = a % base;
        index -= 1;
        buf[index] = digitToChar(@intCast(u8, digit), uppercase);
  2086d7:	c6 44 24 6f 31       	mov    BYTE PTR [rsp+0x6f],0x31
  2086dc:	48 8d 44 24 6f       	lea    rax,[rsp+0x6f]
            if (leftover_padding == 0) break;
        }
        mem.set(u8, buf[0..index], '0');
        return output(context, buf);
    } else {
        const padded_buf = buf[index - padding ..];
  2086e1:	48 89 44 24 20       	mov    QWORD PTR [rsp+0x20],rax
  2086e6:	48 c7 44 24 28 01 00 	mov    QWORD PTR [rsp+0x28],0x1
  2086ed:	00 00 
  2086ef:	48 8d 74 24 20       	lea    rsi,[rsp+0x20]
        mem.set(u8, padded_buf[0..padding], '0');
        return output(context, padded_buf);
  2086f4:	48 89 df             	mov    rdi,rbx
  2086f7:	c5 f8 77             	vzeroupper 
  2086fa:	41 ff d6             	call   r14
                    try formatType(args[next_arg], fmt[0..0], context, Errors, output);
  2086fd:	66 85 c0             	test   ax,ax
  208700:	0f 85 e3 00 00 00    	jne    2087e9 <benchmark.add+0x219>
                        try output(context, fmt[start_index..i]);
  208706:	48 8d 35 2b 84 01 00 	lea    rsi,[rip+0x1842b]        # 220b38 <__unnamed_4>
  20870d:	48 89 df             	mov    rdi,rbx
  208710:	41 ff d6             	call   r14
  208713:	66 85 c0             	test   ax,ax
  208716:	0f 85 cd 00 00 00    	jne    2087e9 <benchmark.add+0x219>
    var buf: [max_int_digits - 1]u8 = undefined;
  20871c:	c5 fc 10 05 03 e3 ff 	vmovups ymm0,YMMWORD PTR [rip+0xffffffffffffe303]        # 206a27 <__unnamed_3+0x17>
  208723:	ff 
  208724:	c5 fc 11 44 24 47    	vmovups YMMWORD PTR [rsp+0x47],ymm0
  20872a:	c5 fe 6f 05 de e2 ff 	vmovdqu ymm0,YMMWORD PTR [rip+0xffffffffffffe2de]        # 206a10 <__unnamed_3>
  208731:	ff 
  208732:	c5 fe 7f 44 24 30    	vmovdqu YMMWORD PTR [rsp+0x30],ymm0
        buf[index] = digitToChar(@intCast(u8, digit), uppercase);
  208738:	49 bf 30 30 30 30 30 	movabs r15,0x3030303030303030
  20873f:	30 30 30 
  208742:	4c 89 7c 24 68       	mov    QWORD PTR [rsp+0x68],r15
  208747:	c6 44 24 67 35       	mov    BYTE PTR [rsp+0x67],0x35
  20874c:	48 8d 44 24 67       	lea    rax,[rsp+0x67]
        const padded_buf = buf[index - padding ..];
  208751:	48 89 44 24 20       	mov    QWORD PTR [rsp+0x20],rax
  208756:	48 c7 44 24 28 09 00 	mov    QWORD PTR [rsp+0x28],0x9
  20875d:	00 00 
  20875f:	48 8d 74 24 20       	lea    rsi,[rsp+0x20]
        return output(context, padded_buf);
  208764:	48 89 df             	mov    rdi,rbx
  208767:	c5 f8 77             	vzeroupper 
  20876a:	41 ff d6             	call   r14
                    try formatType(args[next_arg], fmt[0..0], context, Errors, output);
  20876d:	66 85 c0             	test   ax,ax
  208770:	75 77                	jne    2087e9 <benchmark.add+0x219>
                        try output(context, fmt[start_index..i]);
  208772:	48 8d 35 cf 83 01 00 	lea    rsi,[rip+0x183cf]        # 220b48 <__unnamed_5>
  208779:	48 89 df             	mov    rdi,rbx
  20877c:	41 ff d6             	call   r14
  20877f:	66 85 c0             	test   ax,ax
  208782:	75 65                	jne    2087e9 <benchmark.add+0x219>
    var buf: [max_int_digits - 1]u8 = undefined;
  208784:	c5 fc 10 05 98 e2 ff 	vmovups ymm0,YMMWORD PTR [rip+0xffffffffffffe298]        # 206a24 <__unnamed_3+0x14>
  20878b:	ff 
  20878c:	c5 fc 11 44 24 44    	vmovups YMMWORD PTR [rsp+0x44],ymm0
  208792:	c5 fe 6f 05 76 e2 ff 	vmovdqu ymm0,YMMWORD PTR [rip+0xffffffffffffe276]        # 206a10 <__unnamed_3>
  208799:	ff 
  20879a:	c5 fe 7f 44 24 30    	vmovdqu YMMWORD PTR [rsp+0x30],ymm0
        buf[index] = digitToChar(@intCast(u8, digit), uppercase);
  2087a0:	4c 89 7c 24 65       	mov    QWORD PTR [rsp+0x65],r15
  2087a5:	c6 44 24 6f 30       	mov    BYTE PTR [rsp+0x6f],0x30
  2087aa:	66 c7 44 24 6d 30 30 	mov    WORD PTR [rsp+0x6d],0x3030
  2087b1:	c6 44 24 64 31       	mov    BYTE PTR [rsp+0x64],0x31
  2087b6:	48 8d 44 24 64       	lea    rax,[rsp+0x64]
        const padded_buf = buf[index - padding ..];
  2087bb:	48 89 44 24 20       	mov    QWORD PTR [rsp+0x20],rax
  2087c0:	48 c7 44 24 28 0c 00 	mov    QWORD PTR [rsp+0x28],0xc
  2087c7:	00 00 
  2087c9:	48 8d 74 24 20       	lea    rsi,[rsp+0x20]
        return output(context, padded_buf);
  2087ce:	48 89 df             	mov    rdi,rbx
  2087d1:	c5 f8 77             	vzeroupper 
  2087d4:	41 ff d6             	call   r14
                    try formatType(args[next_arg], fmt[0..0], context, Errors, output);
  2087d7:	66 85 c0             	test   ax,ax
  2087da:	75 0d                	jne    2087e9 <benchmark.add+0x219>
        try output(context, fmt[start_index..]);
  2087dc:	48 8d 35 75 83 01 00 	lea    rsi,[rip+0x18375]        # 220b58 <__unnamed_6>
  2087e3:	48 89 df             	mov    rdi,rbx
  2087e6:	41 ff d6             	call   r14
            assert(@atomicRmw(u8, &self.mutex.lock, builtin.AtomicRmwOp.Xchg, 0, AtomicOrder.SeqCst) == 1);
  2087e9:	31 c0                	xor    eax,eax
  2087eb:	86 05 1f 88 01 00    	xchg   BYTE PTR [rip+0x1881f],al        # 221010 <stderr_mutex>
  2087f1:	3c 01                	cmp    al,0x1
    if (!ok) {
  2087f3:	0f 85 21 05 00 00    	jne    208d1a <benchmark.add+0x74a>
                //On Linux, seccomp can do arbitrary things to our ability to call
                //  syscalls, including return any errno value it wants and
                //  inconsistently throwing errors. Since we can't account for
                //  abuses of seccomp in a reasonable way, we'll assume that if
                //  seccomp is going to block us it will at least do so consistently
                var ts: posix.timespec = undefined;
  2087f9:	c5 fa 6f 05 8f e3 ff 	vmovdqu xmm0,XMMWORD PTR [rip+0xffffffffffffe38f]        # 206b90 <__unnamed_7>
  208800:	ff 
  208801:	c5 f9 7f 44 24 30    	vmovdqa XMMWORD PTR [rsp+0x30],xmm0
  208807:	48 8d 74 24 30       	lea    rsi,[rsp+0x30]
        : "rcx", "r11"
    );
}

pub fn syscall2(number: usize, arg1: usize, arg2: usize) usize {
    return asm volatile ("syscall"
  20880c:	b8 e5 00 00 00       	mov    eax,0xe5
  208811:	bf 01 00 00 00       	mov    edi,0x1
  208816:	0f 05                	syscall 
    return if (signed_r > -4096 and signed_r < 0) @intCast(usize, -signed_r) else 0;
  208818:	48 89 c2             	mov    rdx,rax
  20881b:	48 f7 da             	neg    rdx
  20881e:	31 c9                	xor    ecx,ecx
  208820:	48 3d 00 f0 ff ff    	cmp    rax,0xfffffffffffff000
  208826:	48 0f 47 ca          	cmova  rcx,rdx
                var result = posix.clock_getres(monotonic_clock_id, &ts);
                var errno = posix.getErrno(result);
                switch (errno) {
  20882a:	48 85 c9             	test   rcx,rcx
  20882d:	74 13                	je     208842 <benchmark.add+0x272>
  20882f:	48 83 f9 16          	cmp    rcx,0x16
  208833:	0f 85 85 04 00 00    	jne    208cbe <benchmark.add+0x6ee>
  208839:	66 b8 01 00          	mov    ax,0x1
  20883d:	e9 80 04 00 00       	jmp    208cc2 <benchmark.add+0x6f2>
        const f = @atomicLoad(@typeOf(init_vdso_clock_gettime), &vdso_clock_gettime, builtin.AtomicOrder.Unordered);
  208842:	48 8b 05 cf 47 01 00 	mov    rax,QWORD PTR [rip+0x147cf]        # 21d018 <vdso_clock_gettime>
        if (@ptrToInt(f) != 0) {
  208849:	48 85 c0             	test   rax,rax
  20884c:	74 23                	je     208871 <benchmark.add+0x2a1>
  20884e:	48 8d 74 24 30       	lea    rsi,[rsp+0x30]
            const rc = f(clk_id, tp);
  208853:	bf 01 00 00 00       	mov    edi,0x1
  208858:	ff d0                	call   rax
            switch (rc) {
  20885a:	48 83 f8 ea          	cmp    rax,0xffffffffffffffea
  20885e:	0f 84 46 04 00 00    	je     208caa <benchmark.add+0x6da>
  208864:	48 85 c0             	test   rax,rax
  208867:	c5 fa 6f 05 21 e3 ff 	vmovdqu xmm0,XMMWORD PTR [rip+0xffffffffffffe321]        # 206b90 <__unnamed_7>
  20886e:	ff 
  20886f:	74 11                	je     208882 <benchmark.add+0x2b2>
  208871:	48 8d 74 24 30       	lea    rsi,[rsp+0x30]
  208876:	b8 e4 00 00 00       	mov    eax,0xe4
  20887b:	bf 01 00 00 00       	mov    edi,0x1
  208880:	0f 05                	syscall 
    return if (signed_r > -4096 and signed_r < 0) @intCast(usize, -signed_r) else 0;
  208882:	48 3d 01 f0 ff ff    	cmp    rax,0xfffffffffffff001
                }
                self.resolution = @intCast(u64, ts.tv_sec) * u64(ns_per_s) + @intCast(u64, ts.tv_nsec);

                result = posix.clock_gettime(monotonic_clock_id, &ts);
                errno = posix.getErrno(result);
                if (errno != 0) return std.os.unexpectedErrorPosix(errno);
  208888:	0f 83 30 04 00 00    	jae    208cbe <benchmark.add+0x6ee>
                self.start_time = @intCast(u64, ts.tv_sec) * u64(ns_per_s) + @intCast(u64, ts.tv_nsec);
  20888e:	48 8b 5c 24 30       	mov    rbx,QWORD PTR [rsp+0x30]
  208893:	4c 8b 74 24 38       	mov    r14,QWORD PTR [rsp+0x38]
    fn clockDarwin() u64 {
        return darwin.mach_absolute_time();
    }

    fn clockLinux() u64 {
        var ts: posix.timespec = undefined;
  208898:	c5 f9 7f 44 24 30    	vmovdqa XMMWORD PTR [rsp+0x30],xmm0
        const f = @atomicLoad(@typeOf(init_vdso_clock_gettime), &vdso_clock_gettime, builtin.AtomicOrder.Unordered);
  20889e:	48 8b 05 73 47 01 00 	mov    rax,QWORD PTR [rip+0x14773]        # 21d018 <vdso_clock_gettime>
        if (@ptrToInt(f) != 0) {
  2088a5:	48 85 c0             	test   rax,rax
  2088a8:	74 23                	je     2088cd <benchmark.add+0x2fd>
  2088aa:	48 8d 74 24 30       	lea    rsi,[rsp+0x30]
            const rc = f(clk_id, tp);
  2088af:	bf 01 00 00 00       	mov    edi,0x1
  2088b4:	ff d0                	call   rax
            switch (rc) {
  2088b6:	48 83 f8 ea          	cmp    rax,0xffffffffffffffea
  2088ba:	0f 84 46 04 00 00    	je     208d06 <benchmark.add+0x736>
  2088c0:	48 85 c0             	test   rax,rax
  2088c3:	c5 fa 6f 05 c5 e2 ff 	vmovdqu xmm0,XMMWORD PTR [rip+0xffffffffffffe2c5]        # 206b90 <__unnamed_7>
  2088ca:	ff 
  2088cb:	74 11                	je     2088de <benchmark.add+0x30e>
  2088cd:	48 8d 74 24 30       	lea    rsi,[rsp+0x30]
  2088d2:	b8 e4 00 00 00       	mov    eax,0xe4
  2088d7:	bf 01 00 00 00       	mov    edi,0x1
  2088dc:	0f 05                	syscall 
    return if (signed_r > -4096 and signed_r < 0) @intCast(usize, -signed_r) else 0;
  2088de:	48 3d 01 f0 ff ff    	cmp    rax,0xfffffffffffff001
  2088e4:	0f 83 30 04 00 00    	jae    208d1a <benchmark.add+0x74a>
        var result = posix.clock_gettime(monotonic_clock_id, &ts);
        debug.assert(posix.getErrno(result) == 0);
        return @intCast(u64, ts.tv_sec) * u64(ns_per_s) + @intCast(u64, ts.tv_nsec);
  2088ea:	48 8b 44 24 30       	mov    rax,QWORD PTR [rsp+0x30]
  2088ef:	48 29 d8             	sub    rax,rbx
  2088f2:	48 8b 4c 24 38       	mov    rcx,QWORD PTR [rsp+0x38]
  2088f7:	4c 29 f1             	sub    rcx,r14
  2088fa:	48 69 c0 00 ca 9a 3b 	imul   rax,rax,0x3b9aca00
        var clock = clockNative() - self.start_time;
  208901:	48 01 c8             	add    rax,rcx
    pub fn init(seed: u64) SplitMix64 {
        return SplitMix64{ .s = seed };
    }

    pub fn next(self: *SplitMix64) u64 {
        self.s +%= 0x9e3779b97f4a7c15;
  208904:	48 b9 15 7c 4a 7f b9 	movabs rcx,0x9e3779b97f4a7c15
  20890b:	79 37 9e 
  20890e:	48 01 c1             	add    rcx,rax

        var z = self.s;
        z = (z ^ (z >> 30)) *% 0xbf58476d1ce4e5b9;
  208911:	48 89 ca             	mov    rdx,rcx
  208914:	48 c1 ea 1e          	shr    rdx,0x1e
  208918:	48 31 ca             	xor    rdx,rcx
  20891b:	48 b9 b9 e5 e4 1c 6d 	movabs rcx,0xbf58476d1ce4e5b9
  208922:	47 58 bf 
  208925:	48 0f af d1          	imul   rdx,rcx
        z = (z ^ (z >> 27)) *% 0x94d049bb133111eb;
  208929:	48 89 d6             	mov    rsi,rdx
  20892c:	48 c1 ee 1b          	shr    rsi,0x1b
  208930:	48 31 d6             	xor    rsi,rdx
  208933:	48 ba eb 11 31 13 bb 	movabs rdx,0x94d049bb133111eb
  20893a:	49 d0 94 
  20893d:	48 0f af f2          	imul   rsi,rdx
        return z ^ (z >> 31);
  208941:	48 89 f7             	mov    rdi,rsi
  208944:	48 c1 ef 1f          	shr    rdi,0x1f
  208948:	48 31 f7             	xor    rdi,rsi
        self.s +%= 0x9e3779b97f4a7c15;
  20894b:	48 be 2a f8 94 fe 72 	movabs rsi,0x3c6ef372fe94f82a
  208952:	f3 6e 3c 
  208955:	48 01 c6             	add    rsi,rax
        z = (z ^ (z >> 30)) *% 0xbf58476d1ce4e5b9;
  208958:	48 89 f0             	mov    rax,rsi
  20895b:	48 c1 e8 1e          	shr    rax,0x1e
  20895f:	48 31 f0             	xor    rax,rsi
  208962:	48 0f af c1          	imul   rax,rcx
        z = (z ^ (z >> 27)) *% 0x94d049bb133111eb;
  208966:	48 89 c1             	mov    rcx,rax
  208969:	48 c1 e9 1b          	shr    rcx,0x1b
  20896d:	48 31 c1             	xor    rcx,rax
  208970:	48 0f af ca          	imul   rcx,rdx
        return z ^ (z >> 31);
  208974:	48 89 c8             	mov    rax,rcx
  208977:	48 c1 e8 1f          	shr    rax,0x1f
  20897b:	48 31 c8             	xor    rax,rcx
    }

    fn next(self: *Xoroshiro128) u64 {
        const s0 = self.s[0];
        var s1 = self.s[1];
        const r = s0 +% s1;
  20897e:	48 8d 0c 38          	lea    rcx,[rax+rdi*1]

        s1 ^= s0;
  208982:	48 31 f8             	xor    rax,rdi
pub fn rotl(comptime T: type, x: T, r: var) T {
    if (T.is_signed) {
        @compileError("cannot rotate signed integer");
    } else {
        const ar = @mod(r, T.bit_count);
        return shl(T, x, ar) | shr(T, x, T.bit_count - ar);
  208985:	c4 e3 fb f0 d7 09    	rorx   rdx,rdi,0x9
        self.s[0] = math.rotl(u64, s0, u8(55)) ^ s1 ^ (s1 << 14);
  20898b:	48 31 c2             	xor    rdx,rax
  20898e:	c4 e3 fb f0 f0 1c    	rorx   rsi,rax,0x1c
  208994:	48 c1 e0 0e          	shl    rax,0xe
  208998:	48 31 d0             	xor    rax,rdx
        const r = s0 +% s1;
  20899b:	48 01 f0             	add    rax,rsi
        // Setup prior to the first call to Self.benchmark, may return void or !void
        fn setup(pSelf: *Self) !void {
            var timer = try Timer.start();
            const DefaultPrng = std.rand.DefaultPrng;
            var prng = DefaultPrng.init(timer.read());
            pSelf.a = prng.random.scalar(u64);
  20899e:	48 89 4c 24 08       	mov    QWORD PTR [rsp+0x8],rcx
            pSelf.b = prng.random.scalar(u64);
  2089a3:	48 89 04 24          	mov    QWORD PTR [rsp],rax
  2089a7:	49 bc 00 e8 76 48 17 	movabs r12,0x174876e800
  2089ae:	00 00 00 
  2089b1:	41 bf 01 00 00 00    	mov    r15d,0x1
  2089b7:	4c 8d 74 24 30       	lea    r14,[rsp+0x30]
  2089bc:	45 31 ed             	xor    r13d,r13d
  2089bf:	eb 16                	jmp    2089d7 <benchmark.add+0x407>
  2089c1:	66 66 66 66 66 66 2e 	data16 data16 data16 data16 data16 nop WORD PTR cs:[rax+rax*1+0x0]
  2089c8:	0f 1f 84 00 00 00 00 
  2089cf:	00 
                if (iterations > pSelf.max_iterations) {
  2089d0:	4d 39 e7             	cmp    r15,r12
  2089d3:	4d 0f 43 fc          	cmovae r15,r12
                var ts: posix.timespec = undefined;
  2089d7:	c5 f9 7f 44 24 30    	vmovdqa XMMWORD PTR [rsp+0x30],xmm0
  2089dd:	b8 e5 00 00 00       	mov    eax,0xe5
  2089e2:	bf 01 00 00 00       	mov    edi,0x1
  2089e7:	4c 89 f6             	mov    rsi,r14
  2089ea:	0f 05                	syscall 
  2089ec:	48 89 c1             	mov    rcx,rax
  2089ef:	48 f7 d9             	neg    rcx
  2089f2:	48 3d 00 f0 ff ff    	cmp    rax,0xfffffffffffff000
  2089f8:	49 0f 46 cd          	cmovbe rcx,r13
                switch (errno) {
  2089fc:	48 85 c9             	test   rcx,rcx
  2089ff:	0f 85 2a fe ff ff    	jne    20882f <benchmark.add+0x25f>
        const f = @atomicLoad(@typeOf(init_vdso_clock_gettime), &vdso_clock_gettime, builtin.AtomicOrder.Unordered);
  208a05:	48 8b 05 0c 46 01 00 	mov    rax,QWORD PTR [rip+0x1460c]        # 21d018 <vdso_clock_gettime>
        if (@ptrToInt(f) != 0) {
  208a0c:	48 85 c0             	test   rax,rax
  208a0f:	74 21                	je     208a32 <benchmark.add+0x462>
            const rc = f(clk_id, tp);
  208a11:	bf 01 00 00 00       	mov    edi,0x1
  208a16:	4c 89 f6             	mov    rsi,r14
  208a19:	ff d0                	call   rax
            switch (rc) {
  208a1b:	48 83 f8 ea          	cmp    rax,0xffffffffffffffea
  208a1f:	0f 84 5b 02 00 00    	je     208c80 <benchmark.add+0x6b0>
  208a25:	48 85 c0             	test   rax,rax
  208a28:	c5 fa 6f 05 60 e1 ff 	vmovdqu xmm0,XMMWORD PTR [rip+0xffffffffffffe160]        # 206b90 <__unnamed_7>
  208a2f:	ff 
  208a30:	74 0f                	je     208a41 <benchmark.add+0x471>
  208a32:	b8 e4 00 00 00       	mov    eax,0xe4
  208a37:	bf 01 00 00 00       	mov    edi,0x1
  208a3c:	4c 89 f6             	mov    rsi,r14
  208a3f:	0f 05                	syscall 
    return if (signed_r > -4096 and signed_r < 0) @intCast(usize, -signed_r) else 0;
  208a41:	48 3d 01 f0 ff ff    	cmp    rax,0xfffffffffffff001
                if (errno != 0) return std.os.unexpectedErrorPosix(errno);
  208a47:	0f 83 71 02 00 00    	jae    208cbe <benchmark.add+0x6ee>
                self.start_time = @intCast(u64, ts.tv_sec) * u64(ns_per_s) + @intCast(u64, ts.tv_nsec);
  208a4d:	c5 f9 6f 4c 24 30    	vmovdqa xmm1,XMMWORD PTR [rsp+0x30]
        while (iter > 0) : (iter -= 1) {
  208a53:	4d 85 ff             	test   r15,r15
  208a56:	0f 84 1e 01 00 00    	je     208b7a <benchmark.add+0x5aa>
            //lfence();
            //@fence(AtomicOrder.Acquire); // Generates no type of fence, expected lfence
            var pA: *volatile u64 = &pSelf.a;
            var pB: *volatile u64 = &pSelf.b;
            var pR: *volatile u128 = &pSelf.r;
            pR.* = u128(pA.*) + u128(pB.*);
  208a5c:	49 8d 4f ff          	lea    rcx,[r15-0x1]
  208a60:	4c 89 fa             	mov    rdx,r15
  208a63:	4c 89 f8             	mov    rax,r15
  208a66:	48 83 e2 07          	and    rdx,0x7
  208a6a:	74 37                	je     208aa3 <benchmark.add+0x4d3>
  208a6c:	48 f7 da             	neg    rdx
  208a6f:	4c 89 f8             	mov    rax,r15
  208a72:	66 66 66 66 66 2e 0f 	data16 data16 data16 data16 nop WORD PTR cs:[rax+rax*1+0x0]
  208a79:	1f 84 00 00 00 00 00 
  208a80:	48 8b 74 24 08       	mov    rsi,QWORD PTR [rsp+0x8]
  208a85:	31 ff                	xor    edi,edi
  208a87:	48 03 34 24          	add    rsi,QWORD PTR [rsp]
  208a8b:	40 0f 92 c7          	setb   dil
  208a8f:	48 89 74 24 10       	mov    QWORD PTR [rsp+0x10],rsi
  208a94:	48 89 7c 24 18       	mov    QWORD PTR [rsp+0x18],rdi
        while (iter > 0) : (iter -= 1) {
  208a99:	48 83 c0 ff          	add    rax,0xffffffffffffffff
  208a9d:	48 83 c2 01          	add    rdx,0x1
  208aa1:	75 dd                	jne    208a80 <benchmark.add+0x4b0>
            pR.* = u128(pA.*) + u128(pB.*);
  208aa3:	48 83 f9 07          	cmp    rcx,0x7
  208aa7:	0f 82 cd 00 00 00    	jb     208b7a <benchmark.add+0x5aa>
  208aad:	0f 1f 00             	nop    DWORD PTR [rax]
  208ab0:	48 8b 4c 24 08       	mov    rcx,QWORD PTR [rsp+0x8]
  208ab5:	31 d2                	xor    edx,edx
  208ab7:	48 03 0c 24          	add    rcx,QWORD PTR [rsp]
  208abb:	0f 92 c2             	setb   dl
  208abe:	48 89 4c 24 10       	mov    QWORD PTR [rsp+0x10],rcx
  208ac3:	48 89 54 24 18       	mov    QWORD PTR [rsp+0x18],rdx
  208ac8:	31 c9                	xor    ecx,ecx
  208aca:	48 8b 54 24 08       	mov    rdx,QWORD PTR [rsp+0x8]
  208acf:	48 03 14 24          	add    rdx,QWORD PTR [rsp]
  208ad3:	48 89 54 24 10       	mov    QWORD PTR [rsp+0x10],rdx
  208ad8:	0f 92 c1             	setb   cl
  208adb:	48 89 4c 24 18       	mov    QWORD PTR [rsp+0x18],rcx
  208ae0:	48 8b 4c 24 08       	mov    rcx,QWORD PTR [rsp+0x8]
  208ae5:	31 d2                	xor    edx,edx
  208ae7:	48 03 0c 24          	add    rcx,QWORD PTR [rsp]
  208aeb:	0f 92 c2             	setb   dl
  208aee:	48 89 4c 24 10       	mov    QWORD PTR [rsp+0x10],rcx
  208af3:	48 89 54 24 18       	mov    QWORD PTR [rsp+0x18],rdx
  208af8:	48 8b 4c 24 08       	mov    rcx,QWORD PTR [rsp+0x8]
  208afd:	31 d2                	xor    edx,edx
  208aff:	48 03 0c 24          	add    rcx,QWORD PTR [rsp]
  208b03:	0f 92 c2             	setb   dl
  208b06:	48 89 4c 24 10       	mov    QWORD PTR [rsp+0x10],rcx
  208b0b:	48 89 54 24 18       	mov    QWORD PTR [rsp+0x18],rdx
  208b10:	31 c9                	xor    ecx,ecx
  208b12:	48 8b 54 24 08       	mov    rdx,QWORD PTR [rsp+0x8]
  208b17:	48 03 14 24          	add    rdx,QWORD PTR [rsp]
  208b1b:	48 89 54 24 10       	mov    QWORD PTR [rsp+0x10],rdx
  208b20:	0f 92 c1             	setb   cl
  208b23:	48 89 4c 24 18       	mov    QWORD PTR [rsp+0x18],rcx
  208b28:	48 8b 4c 24 08       	mov    rcx,QWORD PTR [rsp+0x8]
  208b2d:	31 d2                	xor    edx,edx
  208b2f:	48 03 0c 24          	add    rcx,QWORD PTR [rsp]
  208b33:	0f 92 c2             	setb   dl
  208b36:	48 89 4c 24 10       	mov    QWORD PTR [rsp+0x10],rcx
  208b3b:	48 89 54 24 18       	mov    QWORD PTR [rsp+0x18],rdx
  208b40:	48 8b 4c 24 08       	mov    rcx,QWORD PTR [rsp+0x8]
  208b45:	31 d2                	xor    edx,edx
  208b47:	48 03 0c 24          	add    rcx,QWORD PTR [rsp]
  208b4b:	0f 92 c2             	setb   dl
  208b4e:	48 89 4c 24 10       	mov    QWORD PTR [rsp+0x10],rcx
  208b53:	48 89 54 24 18       	mov    QWORD PTR [rsp+0x18],rdx
  208b58:	31 c9                	xor    ecx,ecx
  208b5a:	48 8b 54 24 08       	mov    rdx,QWORD PTR [rsp+0x8]
  208b5f:	48 03 14 24          	add    rdx,QWORD PTR [rsp]
  208b63:	48 89 54 24 10       	mov    QWORD PTR [rsp+0x10],rdx
  208b68:	0f 92 c1             	setb   cl
        while (iter > 0) : (iter -= 1) {
  208b6b:	48 83 c0 f8          	add    rax,0xfffffffffffffff8
            pR.* = u128(pA.*) + u128(pB.*);
  208b6f:	48 89 4c 24 18       	mov    QWORD PTR [rsp+0x18],rcx
        while (iter > 0) : (iter -= 1) {
  208b74:	0f 85 36 ff ff ff    	jne    208ab0 <benchmark.add+0x4e0>
        var ts: posix.timespec = undefined;
  208b7a:	c5 f9 7f 44 24 30    	vmovdqa XMMWORD PTR [rsp+0x30],xmm0
        const f = @atomicLoad(@typeOf(init_vdso_clock_gettime), &vdso_clock_gettime, builtin.AtomicOrder.Unordered);
  208b80:	48 8b 05 91 44 01 00 	mov    rax,QWORD PTR [rip+0x14491]        # 21d018 <vdso_clock_gettime>
        if (@ptrToInt(f) != 0) {
  208b87:	48 85 c0             	test   rax,rax
  208b8a:	74 25                	je     208bb1 <benchmark.add+0x5e1>
  208b8c:	c5 f9 7f 4c 24 70    	vmovdqa XMMWORD PTR [rsp+0x70],xmm1
            const rc = f(clk_id, tp);
  208b92:	bf 01 00 00 00       	mov    edi,0x1
  208b97:	4c 89 f6             	mov    rsi,r14
  208b9a:	ff d0                	call   rax
            switch (rc) {
  208b9c:	48 83 f8 ea          	cmp    rax,0xffffffffffffffea
  208ba0:	0f 84 f0 00 00 00    	je     208c96 <benchmark.add+0x6c6>
  208ba6:	48 85 c0             	test   rax,rax
  208ba9:	c5 f9 6f 4c 24 70    	vmovdqa xmm1,XMMWORD PTR [rsp+0x70]
  208baf:	74 0f                	je     208bc0 <benchmark.add+0x5f0>
  208bb1:	b8 e4 00 00 00       	mov    eax,0xe4
  208bb6:	bf 01 00 00 00       	mov    edi,0x1
  208bbb:	4c 89 f6             	mov    rsi,r14
  208bbe:	0f 05                	syscall 
    return if (signed_r > -4096 and signed_r < 0) @intCast(usize, -signed_r) else 0;
  208bc0:	48 3d 01 f0 ff ff    	cmp    rax,0xfffffffffffff001
  208bc6:	0f 83 4e 01 00 00    	jae    208d1a <benchmark.add+0x74a>
        return @intCast(u64, ts.tv_sec) * u64(ns_per_s) + @intCast(u64, ts.tv_nsec);
  208bcc:	c5 f9 6f 44 24 30    	vmovdqa xmm0,XMMWORD PTR [rsp+0x30]
  208bd2:	c5 f9 fb c1          	vpsubq xmm0,xmm0,xmm1
  208bd6:	c4 e1 f9 7e c0       	vmovq  rax,xmm0
  208bdb:	48 69 c0 00 ca 9a 3b 	imul   rax,rax,0x3b9aca00
        var clock = clockNative() - self.start_time;
  208be2:	c4 e3 f9 16 c3 01    	vpextrq rbx,xmm0,0x1
  208be8:	48 01 c3             	add    rbx,rax
            if (pSelf.logl >= 1) pSelf.report(run_time, iterations);
  208beb:	48 89 df             	mov    rdi,rbx
  208bee:	4c 89 fe             	mov    rsi,r15
  208bf1:	e8 ea 19 00 00       	call   20a5e0 <BenchmarkFramework_report>
            if ((run_time >= pSelf.min_runtime_ns) or (iterations >= pSelf.max_iterations)) {
  208bf6:	4d 39 e7             	cmp    r15,r12
  208bf9:	0f 83 d4 00 00 00    	jae    208cd3 <benchmark.add+0x703>
  208bff:	48 81 fb ff 64 cd 1d 	cmp    rbx,0x1dcd64ff
  208c06:	0f 87 c7 00 00 00    	ja     208cd3 <benchmark.add+0x703>
                if (run_time < 1000) {
  208c0c:	48 81 fb e8 03 00 00 	cmp    rbx,0x3e8
  208c13:	73 1b                	jae    208c30 <benchmark.add+0x660>
  208c15:	b9 01 00 00 00       	mov    ecx,0x1
  208c1a:	b8 e8 03 00 00       	mov    eax,0x3e8
  208c1f:	eb 2b                	jmp    208c4c <benchmark.add+0x67c>
  208c21:	66 66 66 66 66 66 2e 	data16 data16 data16 data16 data16 nop WORD PTR cs:[rax+rax*1+0x0]
  208c28:	0f 1f 84 00 00 00 00 
  208c2f:	00 
                } else if (run_time < (pSelf.min_runtime_ns / 10)) {
  208c30:	31 c0                	xor    eax,eax
  208c32:	48 81 fb 7f f0 fa 02 	cmp    rbx,0x2faf07f
  208c39:	0f 97 c0             	seta   al
  208c3c:	48 8d 0c c0          	lea    rcx,[rax+rax*8]
  208c40:	48 83 c1 01          	add    rcx,0x1
  208c44:	48 8d 04 85 0a 00 00 	lea    rax,[rax*4+0xa]
  208c4b:	00 
  208c4c:	c5 fa 6f 05 3c df ff 	vmovdqu xmm0,XMMWORD PTR [rip+0xffffffffffffdf3c]        # 206b90 <__unnamed_7>
  208c53:	ff 
                iterations = (iterations * numer) / denom;
  208c54:	49 0f af c7          	imul   rax,r15
  208c58:	48 89 c2             	mov    rdx,rax
  208c5b:	48 c1 ea 20          	shr    rdx,0x20
  208c5f:	74 0f                	je     208c70 <benchmark.add+0x6a0>
  208c61:	31 d2                	xor    edx,edx
  208c63:	48 f7 f1             	div    rcx
  208c66:	49 89 c7             	mov    r15,rax
  208c69:	e9 62 fd ff ff       	jmp    2089d0 <benchmark.add+0x400>
  208c6e:	66 90                	xchg   ax,ax
  208c70:	31 d2                	xor    edx,edx
  208c72:	f7 f1                	div    ecx
  208c74:	41 89 c7             	mov    r15d,eax
  208c77:	e9 54 fd ff ff       	jmp    2089d0 <benchmark.add+0x400>
  208c7c:	0f 1f 40 00          	nop    DWORD PTR [rax+0x0]
  208c80:	c5 fa 6f 05 08 df ff 	vmovdqu xmm0,XMMWORD PTR [rip+0xffffffffffffdf08]        # 206b90 <__unnamed_7>
  208c87:	ff 
  208c88:	48 3d 01 f0 ff ff    	cmp    rax,0xfffffffffffff001
                if (errno != 0) return std.os.unexpectedErrorPosix(errno);
  208c8e:	0f 82 b9 fd ff ff    	jb     208a4d <benchmark.add+0x47d>
  208c94:	eb 28                	jmp    208cbe <benchmark.add+0x6ee>
  208c96:	c5 f9 6f 4c 24 70    	vmovdqa xmm1,XMMWORD PTR [rsp+0x70]
  208c9c:	48 3d 01 f0 ff ff    	cmp    rax,0xfffffffffffff001
  208ca2:	0f 82 24 ff ff ff    	jb     208bcc <benchmark.add+0x5fc>
  208ca8:	eb 70                	jmp    208d1a <benchmark.add+0x74a>
  208caa:	c5 fa 6f 05 de de ff 	vmovdqu xmm0,XMMWORD PTR [rip+0xffffffffffffdede]        # 206b90 <__unnamed_7>
  208cb1:	ff 
  208cb2:	48 3d 01 f0 ff ff    	cmp    rax,0xfffffffffffff001
  208cb8:	0f 82 d0 fb ff ff    	jb     20888e <benchmark.add+0x2be>
  208cbe:	66 b8 02 00          	mov    ax,0x2

    // Since this is a test print a \n before we run
    warn("\n");

    // Run the benchmark
    try bf.run(BmAdd);
  208cc2:	48 81 c4 80 00 00 00 	add    rsp,0x80
  208cc9:	5b                   	pop    rbx
  208cca:	41 5c                	pop    r12
  208ccc:	41 5d                	pop    r13
  208cce:	41 5e                	pop    r14
  208cd0:	41 5f                	pop    r15
  208cd2:	c3                   	ret    
  208cd3:	48 8b 04 24          	mov    rax,QWORD PTR [rsp]
            if (pSelf.r != pSelf.a + pSelf.b) return error.Failed;
  208cd7:	48 03 44 24 08       	add    rax,QWORD PTR [rsp+0x8]
  208cdc:	c4 e1 f9 6e c0       	vmovq  xmm0,rax
  208ce1:	c5 f9 74 44 24 10    	vpcmpeqb xmm0,xmm0,XMMWORD PTR [rsp+0x10]
  208ce7:	c5 f9 d7 c8          	vpmovmskb ecx,xmm0
  208ceb:	66 b8 03 00          	mov    ax,0x3
  208cef:	81 f9 ff ff 00 00    	cmp    ecx,0xffff
            try bm.tearDown();
  208cf5:	75 cb                	jne    208cc2 <benchmark.add+0x6f2>
        pSelf.report(run_time, iterations);
  208cf7:	48 89 df             	mov    rdi,rbx
  208cfa:	4c 89 fe             	mov    rsi,r15
  208cfd:	e8 de 18 00 00       	call   20a5e0 <BenchmarkFramework_report>
  208d02:	31 c0                	xor    eax,eax
  208d04:	eb bc                	jmp    208cc2 <benchmark.add+0x6f2>
  208d06:	c5 fa 6f 05 82 de ff 	vmovdqu xmm0,XMMWORD PTR [rip+0xffffffffffffde82]        # 206b90 <__unnamed_7>
  208d0d:	ff 
  208d0e:	48 3d 01 f0 ff ff    	cmp    rax,0xfffffffffffff001
  208d14:	0f 82 d0 fb ff ff    	jb     2088ea <benchmark.add+0x31a>
            @panic("assertion failure");
  208d1a:	e8 01 00 00 00       	call   208d20 <panic>
  208d1f:	90                   	nop

0000000000208d20 <panic>:
        // TODO: fix panic in zen.
        builtin.Os.freestanding, builtin.Os.zen => {
            while (true) {}
        },
        else => {
            const first_trace_addr = @ptrToInt(@returnAddress());
  208d20:	48 83 ec 18          	sub    rsp,0x18
  208d24:	48 8b 44 24 18       	mov    rax,QWORD PTR [rsp+0x18]
            std.debug.panicExtra(error_return_trace, first_trace_addr, "{}", msg);
  208d29:	48 89 44 24 08       	mov    QWORD PTR [rsp+0x8],rax
  208d2e:	c6 44 24 10 01       	mov    BYTE PTR [rsp+0x10],0x1
  208d33:	48 8d 7c 24 08       	lea    rdi,[rsp+0x8]
  208d38:	e8 03 00 00 00       	call   208d40 <panicExtra>
  208d3d:	0f 1f 00             	nop    DWORD PTR [rax]

0000000000208d40 <panicExtra>:
    panicExtra(null, first_trace_addr, format, args);
}

var panicking: u8 = 0; // TODO make this a bool

pub fn panicExtra(trace: ?*const builtin.StackTrace, first_trace_addr: ?usize, comptime format: []const u8, args: ...) noreturn {
  208d40:	41 57                	push   r15
  208d42:	41 56                	push   r14
  208d44:	53                   	push   rbx
  208d45:	48 83 ec 10          	sub    rsp,0x10
  208d49:	b0 01                	mov    al,0x1
    @setCold(true);

    if (@atomicRmw(u8, &panicking, builtin.AtomicRmwOp.Xchg, 1, builtin.AtomicOrder.SeqCst) == 1) {
  208d4b:	86 05 af 82 01 00    	xchg   BYTE PTR [rip+0x182af],al        # 221000 <panicking>
  208d51:	49 89 fe             	mov    r14,rdi
  208d54:	3c 01                	cmp    al,0x1
  208d56:	74 7e                	je     208dd6 <panicExtra+0x96>
    if (stderr_stream) |st| {
  208d58:	48 8b 1d a9 82 01 00 	mov    rbx,QWORD PTR [rip+0x182a9]        # 221008 <stderr_stream>
  208d5f:	48 85 db             	test   rbx,rbx
  208d62:	75 36                	jne    208d9a <panicExtra+0x5a>
        stderr_file = try io.getStdErr();
  208d64:	48 8d 05 95 42 01 00 	lea    rax,[rip+0x14295]        # 21d000 <stderr_file>
        stderr_file_out_stream = io.FileOutStream.init(&stderr_file);
  208d6b:	48 89 05 96 42 01 00 	mov    QWORD PTR [rip+0x14296],rax        # 21d008 <stderr_file_out_stream>
  208d72:	4c 8d 3d 87 1a 00 00 	lea    r15,[rip+0x1a87]        # 20a800 <FileOutStream_writeFn>
  208d79:	4c 89 3d 90 42 01 00 	mov    QWORD PTR [rip+0x14290],r15        # 21d010 <stderr_file_out_stream+0x8>
        stderr_file = try io.getStdErr();
  208d80:	c7 05 76 42 01 00 02 	mov    DWORD PTR [rip+0x14276],0x2        # 21d000 <stderr_file>
  208d87:	00 00 00 
        stderr_file_out_stream = io.FileOutStream.init(&stderr_file);
  208d8a:	48 8d 1d 7f 42 01 00 	lea    rbx,[rip+0x1427f]        # 21d010 <stderr_file_out_stream+0x8>
        stderr_stream = st;
  208d91:	48 89 1d 70 82 01 00 	mov    QWORD PTR [rip+0x18270],rbx        # 221008 <stderr_stream>
  208d98:	eb 07                	jmp    208da1 <panicExtra+0x61>
  208d9a:	4c 8b 3d 6f 42 01 00 	mov    r15,QWORD PTR [rip+0x1426f]        # 21d010 <stderr_file_out_stream+0x8>
                const casted_value = ([]const u8)(value);
  208da1:	c5 f8 10 05 0f 7e 01 	vmovups xmm0,XMMWORD PTR [rip+0x17e0f]        # 220bb8 <__unnamed_8>
  208da8:	00 
  208da9:	c5 f8 29 04 24       	vmovaps XMMWORD PTR [rsp],xmm0
  208dae:	48 89 e6             	mov    rsi,rsp
                return output(context, casted_value);
  208db1:	48 89 df             	mov    rdi,rbx
  208db4:	41 ff d7             	call   r15
                    try formatType(args[next_arg], fmt[0..0], context, Errors, output);
  208db7:	66 85 c0             	test   ax,ax
  208dba:	75 1a                	jne    208dd6 <panicExtra+0x96>
        try output(context, fmt[start_index..]);
  208dbc:	48 8d 35 55 7d 01 00 	lea    rsi,[rip+0x17d55]        # 220b18 <__unnamed_9>
  208dc3:	48 89 df             	mov    rdi,rbx
  208dc6:	41 ff d7             	call   r15
        // we would want to return here instead of calling abort, so that the thread
        // which first called panic can finish printing a stack trace.
        os.abort();
    }
    const stderr = getStderrStream() catch os.abort();
    stderr.print(format ++ "\n", args) catch os.abort();
  208dc9:	66 85 c0             	test   ax,ax
  208dcc:	75 08                	jne    208dd6 <panicExtra+0x96>
    if (trace) |t| {
        dumpStackTrace(t);
    }
    dumpCurrentStackTrace(first_trace_addr);
  208dce:	4c 89 f7             	mov    rdi,r14
  208dd1:	e8 0a 01 00 00       	call   208ee0 <dumpCurrentStackTrace>
  208dd6:	e8 05 00 00 00       	call   208de0 <abort>
  208ddb:	0f 1f 44 00 00       	nop    DWORD PTR [rax+rax*1+0x0]

0000000000208de0 <abort>:
pub const SIG_DFL = @intToPtr(extern fn (i32) void, 0);
pub const SIG_IGN = @intToPtr(extern fn (i32) void, 1);
pub const empty_sigset = []usize{0} ** sigset_t.len;

pub fn raise(sig: i32) usize {
    var set: sigset_t = undefined;
  208de0:	50                   	push   rax
  208de1:	c5 fc 10 05 17 c6 ff 	vmovups ymm0,YMMWORD PTR [rip+0xffffffffffffc617]        # 205400 <__unnamed_10+0x60>
  208de8:	ff 
  208de9:	c5 fc 11 44 24 e0    	vmovups YMMWORD PTR [rsp-0x20],ymm0
  208def:	c5 fc 10 0d e9 c5 ff 	vmovups ymm1,YMMWORD PTR [rip+0xffffffffffffc5e9]        # 2053e0 <__unnamed_10+0x40>
  208df6:	ff 
  208df7:	c5 fc 11 4c 24 c0    	vmovups YMMWORD PTR [rsp-0x40],ymm1
  208dfd:	c5 fc 10 15 bb c5 ff 	vmovups ymm2,YMMWORD PTR [rip+0xffffffffffffc5bb]        # 2053c0 <__unnamed_10+0x20>
  208e04:	ff 
  208e05:	c5 fc 11 54 24 a0    	vmovups YMMWORD PTR [rsp-0x60],ymm2
  208e0b:	c5 fc 10 1d 8d c5 ff 	vmovups ymm3,YMMWORD PTR [rip+0xffffffffffffc58d]        # 2053a0 <__unnamed_10>
  208e12:	ff 
  208e13:	c5 fc 11 5c 24 80    	vmovups YMMWORD PTR [rsp-0x80],ymm3
        : "rcx", "r11"
    );
}

pub fn syscall4(number: usize, arg1: usize, arg2: usize, arg3: usize, arg4: usize) usize {
    return asm volatile ("syscall"
  208e19:	4c 8d 0d 60 74 ff ff 	lea    r9,[rip+0xffffffffffff7460]        # 200280 <app_mask>
  208e20:	4c 8d 44 24 80       	lea    r8,[rsp-0x80]
  208e25:	b8 0e 00 00 00       	mov    eax,0xe
  208e2a:	bf 00 00 00 00       	mov    edi,0x0
  208e2f:	41 ba 08 00 00 00    	mov    r10d,0x8
  208e35:	4c 89 ce             	mov    rsi,r9
  208e38:	4c 89 c2             	mov    rdx,r8
  208e3b:	0f 05                	syscall 
    return asm volatile ("syscall"
  208e3d:	b8 ba 00 00 00       	mov    eax,0xba
  208e42:	0f 05                	syscall 
    blockAppSignals(&set);
    const tid = @intCast(i32, syscall0(SYS_gettid));
    const ret = syscall2(SYS_tkill, @intCast(usize, tid), @intCast(usize, sig));
  208e44:	48 63 f8             	movsxd rdi,eax
    return asm volatile ("syscall"
  208e47:	b8 c8 00 00 00       	mov    eax,0xc8
  208e4c:	be 06 00 00 00       	mov    esi,0x6
  208e51:	0f 05                	syscall 
    return asm volatile ("syscall"
  208e53:	b8 0e 00 00 00       	mov    eax,0xe
  208e58:	bf 02 00 00 00       	mov    edi,0x2
  208e5d:	ba 00 00 00 00       	mov    edx,0x0
  208e62:	41 ba 08 00 00 00    	mov    r10d,0x8
  208e68:	4c 89 c6             	mov    rsi,r8
  208e6b:	0f 05                	syscall 
    var set: sigset_t = undefined;
  208e6d:	c5 fc 11 44 24 e0    	vmovups YMMWORD PTR [rsp-0x20],ymm0
  208e73:	c5 fc 11 4c 24 c0    	vmovups YMMWORD PTR [rsp-0x40],ymm1
  208e79:	c5 fc 11 54 24 a0    	vmovups YMMWORD PTR [rsp-0x60],ymm2
  208e7f:	c5 fc 11 5c 24 80    	vmovups YMMWORD PTR [rsp-0x80],ymm3
  208e85:	b8 0e 00 00 00       	mov    eax,0xe
  208e8a:	bf 00 00 00 00       	mov    edi,0x0
  208e8f:	41 ba 08 00 00 00    	mov    r10d,0x8
  208e95:	4c 89 ce             	mov    rsi,r9
  208e98:	4c 89 c2             	mov    rdx,r8
  208e9b:	0f 05                	syscall 
    return asm volatile ("syscall"
  208e9d:	b8 ba 00 00 00       	mov    eax,0xba
  208ea2:	0f 05                	syscall 
    const ret = syscall2(SYS_tkill, @intCast(usize, tid), @intCast(usize, sig));
  208ea4:	48 63 f8             	movsxd rdi,eax
    return asm volatile ("syscall"
  208ea7:	b8 c8 00 00 00       	mov    eax,0xc8
  208eac:	be 09 00 00 00       	mov    esi,0x9
  208eb1:	0f 05                	syscall 
    return asm volatile ("syscall"
  208eb3:	b8 0e 00 00 00       	mov    eax,0xe
  208eb8:	bf 02 00 00 00       	mov    edi,0x2
  208ebd:	31 d2                	xor    edx,edx
  208ebf:	41 ba 08 00 00 00    	mov    r10d,0x8
  208ec5:	4c 89 c6             	mov    rsi,r8
  208ec8:	0f 05                	syscall 
  208eca:	66 0f 1f 44 00 00    	nop    WORD PTR [rax+rax*1+0x0]
    }
    switch (builtin.os) {
        Os.linux, Os.macosx, Os.ios => {
            _ = posix.raise(posix.SIGABRT);
            _ = posix.raise(posix.SIGKILL);
            while (true) {}
  208ed0:	eb fe                	jmp    208ed0 <abort+0xf0>
  208ed2:	66 66 66 66 66 2e 0f 	data16 data16 data16 data16 nop WORD PTR cs:[rax+rax*1+0x0]
  208ed9:	1f 84 00 00 00 00 00 

0000000000208ee0 <dumpCurrentStackTrace>:
pub fn dumpCurrentStackTrace(start_addr: ?usize) void {
  208ee0:	55                   	push   rbp
  208ee1:	48 89 e5             	mov    rbp,rsp
  208ee4:	41 57                	push   r15
  208ee6:	41 56                	push   r14
  208ee8:	41 55                	push   r13
  208eea:	41 54                	push   r12
  208eec:	53                   	push   rbx
  208eed:	48 83 e4 e0          	and    rsp,0xffffffffffffffe0
  208ef1:	48 81 ec a0 01 00 00 	sub    rsp,0x1a0
  208ef8:	49 89 fe             	mov    r14,rdi
    if (stderr_stream) |st| {
  208efb:	48 8b 1d 06 81 01 00 	mov    rbx,QWORD PTR [rip+0x18106]        # 221008 <stderr_stream>
  208f02:	48 85 db             	test   rbx,rbx
  208f05:	74 39                	je     208f40 <dumpCurrentStackTrace+0x60>
    if (self_debug_info) |info| {
  208f07:	48 8b 05 0a 81 01 00 	mov    rax,QWORD PTR [rip+0x1810a]        # 221018 <self_debug_info>
  208f0e:	48 89 44 24 68       	mov    QWORD PTR [rsp+0x68],rax
  208f13:	48 85 c0             	test   rax,rax
  208f16:	74 6d                	je     208f85 <dumpCurrentStackTrace+0xa5>
// TODO make thread safe
var debug_info_allocator: ?*mem.Allocator = null;
var debug_info_direct_allocator: std.heap.DirectAllocator = undefined;
var debug_info_arena_allocator: std.heap.ArenaAllocator = undefined;
fn getDebugInfoAllocator() *mem.Allocator {
    if (debug_info_allocator) |a| return a;
  208f18:	48 83 3d 00 81 01 00 	cmp    QWORD PTR [rip+0x18100],0x0        # 221020 <debug_info_allocator>
  208f1f:	00 
  208f20:	0f 84 4e 01 00 00    	je     209074 <dumpCurrentStackTrace+0x194>
    }
}

/// TODO make this go through libc when we have it
pub fn getEnvPosix(key: []const u8) ?[]const u8 {
    for (posix_environ_raw) |ptr| {
  208f26:	48 8b 05 5b 41 01 00 	mov    rax,QWORD PTR [rip+0x1415b]        # 21d088 <posix_environ_raw+0x8>
  208f2d:	48 85 c0             	test   rax,rax
  208f30:	48 89 5c 24 70       	mov    QWORD PTR [rsp+0x70],rbx
  208f35:	0f 85 a4 01 00 00    	jne    2090df <dumpCurrentStackTrace+0x1ff>
  208f3b:	e9 5d 02 00 00       	jmp    20919d <dumpCurrentStackTrace+0x2bd>
        stderr_file = try io.getStdErr();
  208f40:	48 8d 05 b9 40 01 00 	lea    rax,[rip+0x140b9]        # 21d000 <stderr_file>
        stderr_file_out_stream = io.FileOutStream.init(&stderr_file);
  208f47:	48 89 05 ba 40 01 00 	mov    QWORD PTR [rip+0x140ba],rax        # 21d008 <stderr_file_out_stream>
  208f4e:	48 8d 05 ab 18 00 00 	lea    rax,[rip+0x18ab]        # 20a800 <FileOutStream_writeFn>
  208f55:	48 89 05 b4 40 01 00 	mov    QWORD PTR [rip+0x140b4],rax        # 21d010 <stderr_file_out_stream+0x8>
        stderr_file = try io.getStdErr();
  208f5c:	c7 05 9a 40 01 00 02 	mov    DWORD PTR [rip+0x1409a],0x2        # 21d000 <stderr_file>
  208f63:	00 00 00 
        stderr_file_out_stream = io.FileOutStream.init(&stderr_file);
  208f66:	48 8d 1d a3 40 01 00 	lea    rbx,[rip+0x140a3]        # 21d010 <stderr_file_out_stream+0x8>
        stderr_stream = st;
  208f6d:	48 89 1d 94 80 01 00 	mov    QWORD PTR [rip+0x18094],rbx        # 221008 <stderr_stream>
    if (self_debug_info) |info| {
  208f74:	48 8b 05 9d 80 01 00 	mov    rax,QWORD PTR [rip+0x1809d]        # 221018 <self_debug_info>
  208f7b:	48 89 44 24 68       	mov    QWORD PTR [rsp+0x68],rax
  208f80:	48 85 c0             	test   rax,rax
  208f83:	75 93                	jne    208f18 <dumpCurrentStackTrace+0x38>
    if (debug_info_allocator) |a| return a;
  208f85:	48 8b 35 94 80 01 00 	mov    rsi,QWORD PTR [rip+0x18094]        # 221020 <debug_info_allocator>
  208f8c:	48 85 f6             	test   rsi,rsi
  208f8f:	75 56                	jne    208fe7 <dumpCurrentStackTrace+0x107>

    debug_info_direct_allocator = std.heap.DirectAllocator.init();
  208f91:	c5 fc 10 05 ef 7d 01 	vmovups ymm0,YMMWORD PTR [rip+0x17def]        # 220d88 <__unnamed_11>
  208f98:	00 
  208f99:	c5 fc 11 05 7f 40 01 	vmovups YMMWORD PTR [rip+0x1407f],ymm0        # 21d020 <debug_info_direct_allocator>
  208fa0:	00 
    debug_info_arena_allocator = std.heap.ArenaAllocator.init(&debug_info_direct_allocator.allocator);
  208fa1:	c5 fa 6f 05 ff 7d 01 	vmovdqu xmm0,XMMWORD PTR [rip+0x17dff]        # 220da8 <__unnamed_12>
  208fa8:	00 
  208fa9:	c5 fa 7f 05 8f 40 01 	vmovdqu XMMWORD PTR [rip+0x1408f],xmm0        # 21d040 <debug_info_arena_allocator>
  208fb0:	00 
    debug_info_direct_allocator = std.heap.DirectAllocator.init();
  208fb1:	48 8d 05 68 40 01 00 	lea    rax,[rip+0x14068]        # 21d020 <debug_info_direct_allocator>
    debug_info_arena_allocator = std.heap.ArenaAllocator.init(&debug_info_direct_allocator.allocator);
  208fb8:	48 8b 0d f9 7d 01 00 	mov    rcx,QWORD PTR [rip+0x17df9]        # 220db8 <__unnamed_12+0x10>
  208fbf:	48 89 0d 8a 40 01 00 	mov    QWORD PTR [rip+0x1408a],rcx        # 21d050 <debug_info_arena_allocator+0x10>
  208fc6:	48 8d 35 73 40 01 00 	lea    rsi,[rip+0x14073]        # 21d040 <debug_info_arena_allocator>
  208fcd:	48 89 05 84 40 01 00 	mov    QWORD PTR [rip+0x14084],rax        # 21d058 <debug_info_arena_allocator+0x18>
  208fd4:	c5 f9 ef c0          	vpxor  xmm0,xmm0,xmm0
  208fd8:	c5 fe 7f 05 80 40 01 	vmovdqu YMMWORD PTR [rip+0x14080],ymm0        # 21d060 <debug_info_arena_allocator+0x20>
  208fdf:	00 
    debug_info_allocator = &debug_info_arena_allocator.allocator;
  208fe0:	48 89 35 39 80 01 00 	mov    QWORD PTR [rip+0x18039],rsi        # 221020 <debug_info_allocator>
  208fe7:	48 8d 7c 24 20       	lea    rdi,[rsp+0x20]
        const info = try openSelfDebugInfo(getDebugInfoAllocator());
  208fec:	c5 f8 77             	vzeroupper 
  208fef:	e8 fc 18 00 00       	call   20a8f0 <openSelfDebugInfo>
  208ff4:	4c 0f bf 7c 24 20    	movsx  r15,WORD PTR [rsp+0x20]
  208ffa:	4d 85 ff             	test   r15,r15
  208ffd:	74 56                	je     209055 <dumpCurrentStackTrace+0x175>
  208fff:	4c 8b 33             	mov    r14,QWORD PTR [rbx]
                        try output(context, fmt[start_index..i]);
  209002:	48 8d 35 bf 7b 01 00 	lea    rsi,[rip+0x17bbf]        # 220bc8 <__unnamed_13>
  209009:	48 89 df             	mov    rdi,rbx
  20900c:	41 ff d6             	call   r14
  20900f:	66 85 c0             	test   ax,ax
  209012:	0f 85 dd 14 00 00    	jne    20a4f5 <dumpCurrentStackTrace+0x1615>
        stderr.print("Unable to dump stack trace: Unable to open debug info: {}\n", @errorName(err)) catch return;
  209018:	49 c1 e7 04          	shl    r15,0x4
  20901c:	48 8d 05 dd 4f 01 00 	lea    rax,[rip+0x14fdd]        # 21e000 <raw+0xf68>
                const casted_value = ([]const u8)(value);
  209023:	c4 c1 7a 6f 04 07    	vmovdqu xmm0,XMMWORD PTR [r15+rax*1]
  209029:	c5 f9 7f 44 24 20    	vmovdqa XMMWORD PTR [rsp+0x20],xmm0
  20902f:	48 8d 74 24 20       	lea    rsi,[rsp+0x20]
                return output(context, casted_value);
  209034:	48 89 df             	mov    rdi,rbx
  209037:	41 ff d6             	call   r14
                    try formatType(args[next_arg], fmt[0..0], context, Errors, output);
  20903a:	66 85 c0             	test   ax,ax
  20903d:	0f 85 b2 14 00 00    	jne    20a4f5 <dumpCurrentStackTrace+0x1615>
        try output(context, fmt[start_index..]);
  209043:	48 8d 35 8e 7b 01 00 	lea    rsi,[rip+0x17b8e]        # 220bd8 <__unnamed_14>
  20904a:	48 89 df             	mov    rdi,rbx
  20904d:	41 ff d6             	call   r14
  209050:	e9 a0 14 00 00       	jmp    20a4f5 <dumpCurrentStackTrace+0x1615>
        const info = try openSelfDebugInfo(getDebugInfoAllocator());
  209055:	48 8b 44 24 28       	mov    rax,QWORD PTR [rsp+0x28]
  20905a:	48 89 44 24 68       	mov    QWORD PTR [rsp+0x68],rax
        self_debug_info = info;
  20905f:	48 89 05 b2 7f 01 00 	mov    QWORD PTR [rip+0x17fb2],rax        # 221018 <self_debug_info>
    if (debug_info_allocator) |a| return a;
  209066:	48 83 3d b2 7f 01 00 	cmp    QWORD PTR [rip+0x17fb2],0x0        # 221020 <debug_info_allocator>
  20906d:	00 
  20906e:	0f 85 b2 fe ff ff    	jne    208f26 <dumpCurrentStackTrace+0x46>
    debug_info_direct_allocator = std.heap.DirectAllocator.init();
  209074:	c5 fc 10 05 0c 7d 01 	vmovups ymm0,YMMWORD PTR [rip+0x17d0c]        # 220d88 <__unnamed_11>
  20907b:	00 
  20907c:	c5 fc 11 05 9c 3f 01 	vmovups YMMWORD PTR [rip+0x13f9c],ymm0        # 21d020 <debug_info_direct_allocator>
  209083:	00 
    debug_info_arena_allocator = std.heap.ArenaAllocator.init(&debug_info_direct_allocator.allocator);
  209084:	c5 fa 6f 05 1c 7d 01 	vmovdqu xmm0,XMMWORD PTR [rip+0x17d1c]        # 220da8 <__unnamed_12>
  20908b:	00 
  20908c:	c5 fa 7f 05 ac 3f 01 	vmovdqu XMMWORD PTR [rip+0x13fac],xmm0        # 21d040 <debug_info_arena_allocator>
  209093:	00 
    debug_info_direct_allocator = std.heap.DirectAllocator.init();
  209094:	48 8d 05 85 3f 01 00 	lea    rax,[rip+0x13f85]        # 21d020 <debug_info_direct_allocator>
    debug_info_arena_allocator = std.heap.ArenaAllocator.init(&debug_info_direct_allocator.allocator);
  20909b:	48 8b 0d 16 7d 01 00 	mov    rcx,QWORD PTR [rip+0x17d16]        # 220db8 <__unnamed_12+0x10>
  2090a2:	48 89 0d a7 3f 01 00 	mov    QWORD PTR [rip+0x13fa7],rcx        # 21d050 <debug_info_arena_allocator+0x10>
  2090a9:	48 8d 0d 90 3f 01 00 	lea    rcx,[rip+0x13f90]        # 21d040 <debug_info_arena_allocator>
  2090b0:	48 89 05 a1 3f 01 00 	mov    QWORD PTR [rip+0x13fa1],rax        # 21d058 <debug_info_arena_allocator+0x18>
  2090b7:	c5 f9 ef c0          	vpxor  xmm0,xmm0,xmm0
  2090bb:	c5 fe 7f 05 9d 3f 01 	vmovdqu YMMWORD PTR [rip+0x13f9d],ymm0        # 21d060 <debug_info_arena_allocator+0x20>
  2090c2:	00 
    debug_info_allocator = &debug_info_arena_allocator.allocator;
  2090c3:	48 89 0d 56 7f 01 00 	mov    QWORD PTR [rip+0x17f56],rcx        # 221020 <debug_info_allocator>
  2090ca:	48 8b 05 b7 3f 01 00 	mov    rax,QWORD PTR [rip+0x13fb7]        # 21d088 <posix_environ_raw+0x8>
  2090d1:	48 85 c0             	test   rax,rax
  2090d4:	48 89 5c 24 70       	mov    QWORD PTR [rsp+0x70],rbx
  2090d9:	0f 84 be 00 00 00    	je     20919d <dumpCurrentStackTrace+0x2bd>
  2090df:	48 8b 0d 9a 3f 01 00 	mov    rcx,QWORD PTR [rip+0x13f9a]        # 21d080 <posix_environ_raw>
  2090e6:	31 d2                	xor    edx,edx
  2090e8:	0f 1f 84 00 00 00 00 	nop    DWORD PTR [rax+rax*1+0x0]
  2090ef:	00 
  2090f0:	48 8b 34 d1          	mov    rsi,QWORD PTR [rcx+rdx*8]
  2090f4:	48 c7 c7 f1 ff ff ff 	mov    rdi,0xfffffffffffffff1
        var line_i: usize = 0;
        while (ptr[line_i] != 0 and ptr[line_i] != '=') : (line_i += 1) {}
  2090fb:	8a 5c 3e 0f          	mov    bl,BYTE PTR [rsi+rdi*1+0xf]
  2090ff:	84 db                	test   bl,bl
  209101:	74 1f                	je     209122 <dumpCurrentStackTrace+0x242>
  209103:	66 66 66 66 2e 0f 1f 	data16 data16 data16 nop WORD PTR cs:[rax+rax*1+0x0]
  20910a:	84 00 00 00 00 00 
  209110:	80 fb 3d             	cmp    bl,0x3d
  209113:	74 0d                	je     209122 <dumpCurrentStackTrace+0x242>
  209115:	48 83 c7 01          	add    rdi,0x1
  209119:	0f b6 5c 3e 0f       	movzx  ebx,BYTE PTR [rsi+rdi*1+0xf]
  20911e:	84 db                	test   bl,bl
  209120:	75 ee                	jne    209110 <dumpCurrentStackTrace+0x230>
    if (a.len != b.len) return false;
  209122:	48 85 ff             	test   rdi,rdi
  209125:	75 69                	jne    209190 <dumpCurrentStackTrace+0x2b0>
        if (b[index] != item) return false;
  209127:	80 3e 5a             	cmp    BYTE PTR [rsi],0x5a
  20912a:	75 64                	jne    209190 <dumpCurrentStackTrace+0x2b0>
  20912c:	80 7e 01 49          	cmp    BYTE PTR [rsi+0x1],0x49
  209130:	75 5e                	jne    209190 <dumpCurrentStackTrace+0x2b0>
  209132:	80 7e 02 47          	cmp    BYTE PTR [rsi+0x2],0x47
  209136:	75 58                	jne    209190 <dumpCurrentStackTrace+0x2b0>
  209138:	80 7e 03 5f          	cmp    BYTE PTR [rsi+0x3],0x5f
  20913c:	75 52                	jne    209190 <dumpCurrentStackTrace+0x2b0>
  20913e:	80 7e 04 44          	cmp    BYTE PTR [rsi+0x4],0x44
  209142:	75 4c                	jne    209190 <dumpCurrentStackTrace+0x2b0>
  209144:	80 7e 05 45          	cmp    BYTE PTR [rsi+0x5],0x45
  209148:	75 46                	jne    209190 <dumpCurrentStackTrace+0x2b0>
  20914a:	80 7e 06 42          	cmp    BYTE PTR [rsi+0x6],0x42
  20914e:	75 40                	jne    209190 <dumpCurrentStackTrace+0x2b0>
  209150:	80 7e 07 55          	cmp    BYTE PTR [rsi+0x7],0x55
  209154:	75 3a                	jne    209190 <dumpCurrentStackTrace+0x2b0>
  209156:	80 7e 08 47          	cmp    BYTE PTR [rsi+0x8],0x47
  20915a:	75 34                	jne    209190 <dumpCurrentStackTrace+0x2b0>
  20915c:	80 7e 09 5f          	cmp    BYTE PTR [rsi+0x9],0x5f
  209160:	75 2e                	jne    209190 <dumpCurrentStackTrace+0x2b0>
  209162:	80 7e 0a 43          	cmp    BYTE PTR [rsi+0xa],0x43
  209166:	75 28                	jne    209190 <dumpCurrentStackTrace+0x2b0>
  209168:	80 7e 0b 4f          	cmp    BYTE PTR [rsi+0xb],0x4f
  20916c:	75 22                	jne    209190 <dumpCurrentStackTrace+0x2b0>
  20916e:	80 7e 0c 4c          	cmp    BYTE PTR [rsi+0xc],0x4c
  209172:	75 1c                	jne    209190 <dumpCurrentStackTrace+0x2b0>
  209174:	80 7e 0d 4f          	cmp    BYTE PTR [rsi+0xd],0x4f
  209178:	75 16                	jne    209190 <dumpCurrentStackTrace+0x2b0>
  20917a:	80 7e 0e 52          	cmp    BYTE PTR [rsi+0xe],0x52
  20917e:	0f 84 28 14 00 00    	je     20a5ac <dumpCurrentStackTrace+0x16cc>
  209184:	66 66 66 2e 0f 1f 84 	data16 data16 nop WORD PTR cs:[rax+rax*1+0x0]
  20918b:	00 00 00 00 00 
    for (posix_environ_raw) |ptr| {
  209190:	48 83 c2 01          	add    rdx,0x1
  209194:	48 39 c2             	cmp    rdx,rax
  209197:	0f 82 53 ff ff ff    	jb     2090f0 <dumpCurrentStackTrace+0x210>
    return syscall3(SYS_ioctl, @intCast(usize, fd), TIOCGWINSZ, @ptrToInt(&wsz)) == 0;
  20919d:	48 63 3d 5c 3e 01 00 	movsxd rdi,DWORD PTR [rip+0x13e5c]        # 21d000 <stderr_file>
  2091a4:	48 8d 54 24 20       	lea    rdx,[rsp+0x20]
    return asm volatile ("syscall"
  2091a9:	b8 10 00 00 00       	mov    eax,0x10
  2091ae:	be 13 54 00 00       	mov    esi,0x5413
  2091b3:	0f 05                	syscall 
  2091b5:	48 85 c0             	test   rax,rax
  2091b8:	0f 94 44 24 07       	sete   BYTE PTR [rsp+0x7]
    if (start_addr) |addr| {
  2091bd:	41 80 7e 08 01       	cmp    BYTE PTR [r14+0x8],0x1
  2091c2:	48 8b 74 24 68       	mov    rsi,QWORD PTR [rsp+0x68]
  2091c7:	75 0f                	jne    2091d8 <dumpCurrentStackTrace+0x2f8>
  2091c9:	49 8b 0e             	mov    rcx,QWORD PTR [r14]
  2091cc:	b0 01                	mov    al,0x1
    while (fp != 0) : (fp = @intToPtr(*const usize, fp).*) {
  2091ce:	48 85 ed             	test   rbp,rbp
  2091d1:	75 10                	jne    2091e3 <dumpCurrentStackTrace+0x303>
  2091d3:	e9 1d 13 00 00       	jmp    20a4f5 <dumpCurrentStackTrace+0x1615>
  2091d8:	31 c0                	xor    eax,eax
  2091da:	48 85 ed             	test   rbp,rbp
  2091dd:	0f 84 12 13 00 00    	je     20a4f5 <dumpCurrentStackTrace+0x1615>
  2091e3:	48 89 ea             	mov    rdx,rbp
  2091e6:	c4 62 7d 59 25 71 70 	vpbroadcastq ymm12,QWORD PTR [rip+0xffffffffffff7071]        # 200260 <__unnamed_90+0x80>
  2091ed:	ff ff 
  2091ef:	c4 62 7d 59 2d d8 70 	vpbroadcastq ymm13,QWORD PTR [rip+0xffffffffffff70d8]        # 2002d0 <app_mask+0x50>
  2091f6:	ff ff 
  2091f8:	c5 7d 7f a4 24 00 01 	vmovdqa YMMWORD PTR [rsp+0x100],ymm12
  2091ff:	00 00 
  209201:	c5 7d 7f ac 24 e0 00 	vmovdqa YMMWORD PTR [rsp+0xe0],ymm13
  209208:	00 00 
  20920a:	48 89 8c 24 a8 00 00 	mov    QWORD PTR [rsp+0xa8],rcx
  209211:	00 
  209212:	48 89 74 24 68       	mov    QWORD PTR [rsp+0x68],rsi
  209217:	e9 44 12 00 00       	jmp    20a460 <dumpCurrentStackTrace+0x1580>
  20921c:	0f 1f 40 00          	nop    DWORD PTR [rax+0x0]
  209220:	48 89 94 24 b0 00 00 	mov    QWORD PTR [rsp+0xb0],rdx
  209227:	00 
    var in_file_stream = io.FileInStream.init(&st.self_exe_file);
  209228:	48 89 b4 24 c8 00 00 	mov    QWORD PTR [rsp+0xc8],rsi
  20922f:	00 
  209230:	48 8d 05 b9 68 00 00 	lea    rax,[rip+0x68b9]        # 20faf0 <FileInStream_readFn>
  209237:	48 89 84 24 d0 00 00 	mov    QWORD PTR [rsp+0xd0],rax
  20923e:	00 
        pub fn deinit(self: Self) void {
            self.allocator.free(self.items);
        }

        pub fn toSlice(self: Self) []align(A) T {
            return self.items[0..self.len];
  20923f:	48 8b 86 b8 00 00 00 	mov    rax,QWORD PTR [rsi+0xb8]
  209246:	48 89 44 24 78       	mov    QWORD PTR [rsp+0x78],rax
    for (st.compile_unit_list.toSlice()) |*compile_unit| {
  20924b:	48 85 c0             	test   rax,rax
  20924e:	0f 84 6c 04 00 00    	je     2096c0 <dumpCurrentStackTrace+0x7e0>
  209254:	48 8b 44 24 68       	mov    rax,QWORD PTR [rsp+0x68]
  209259:	4c 8b 88 a8 00 00 00 	mov    r9,QWORD PTR [rax+0xa8]
  209260:	45 31 e4             	xor    r12d,r12d
  209263:	e9 08 02 00 00       	jmp    209470 <dumpCurrentStackTrace+0x590>
                result = (result << 8) | b;
            }
        },
        builtin.Endian.Little => {
            const ShiftType = math.Log2Int(T);
            for (bytes) |b, index| {
  209268:	48 89 c3             	mov    rbx,rax
  20926b:	48 83 e3 f0          	and    rbx,0xfffffffffffffff0
  20926f:	48 8d 73 f0          	lea    rsi,[rbx-0x10]
  209273:	48 89 f7             	mov    rdi,rsi
  209276:	48 c1 ef 04          	shr    rdi,0x4
  20927a:	44 8d 47 01          	lea    r8d,[rdi+0x1]
  20927e:	41 83 e0 01          	and    r8d,0x1
  209282:	48 85 f6             	test   rsi,rsi
  209285:	0f 84 bd 01 00 00    	je     209448 <dumpCurrentStackTrace+0x568>
  20928b:	49 8d 70 ff          	lea    rsi,[r8-0x1]
  20928f:	48 29 fe             	sub    rsi,rdi
  209292:	c5 f9 ef c0          	vpxor  xmm0,xmm0,xmm0
  209296:	31 ff                	xor    edi,edi
  209298:	c5 fd 6f 25 00 6f ff 	vmovdqa ymm4,YMMWORD PTR [rip+0xffffffffffff6f00]        # 2001a0 <__unnamed_90-0x40>
  20929f:	ff 
  2092a0:	c5 f1 ef c9          	vpxor  xmm1,xmm1,xmm1
  2092a4:	c5 e1 ef db          	vpxor  xmm3,xmm3,xmm3
  2092a8:	c5 e9 ef d2          	vpxor  xmm2,xmm2,xmm2
  2092ac:	0f 1f 40 00          	nop    DWORD PTR [rax+0x0]
                result = result | (T(b) << @intCast(ShiftType, index * 8));
  2092b0:	c4 e2 7d 32 2c 39    	vpmovzxbq ymm5,DWORD PTR [rcx+rdi*1]
  2092b6:	c4 e2 7d 32 74 39 04 	vpmovzxbq ymm6,DWORD PTR [rcx+rdi*1+0x4]
  2092bd:	c4 e2 7d 32 7c 39 08 	vpmovzxbq ymm7,DWORD PTR [rcx+rdi*1+0x8]
  2092c4:	c4 62 7d 32 44 39 0c 	vpmovzxbq ymm8,DWORD PTR [rcx+rdi*1+0xc]
  2092cb:	c5 b5 73 f4 03       	vpsllq ymm9,ymm4,0x3
  2092d0:	c4 41 35 d4 d4       	vpaddq ymm10,ymm9,ymm12
  2092d5:	c4 41 35 db dd       	vpand  ymm11,ymm9,ymm13
  2092da:	c4 41 2d db d5       	vpand  ymm10,ymm10,ymm13
  2092df:	c4 c2 d5 47 eb       	vpsllvq ymm5,ymm5,ymm11
  2092e4:	c5 d5 eb c0          	vpor   ymm0,ymm5,ymm0
  2092e8:	c4 c2 cd 47 ea       	vpsllvq ymm5,ymm6,ymm10
  2092ed:	c5 d5 eb c9          	vpor   ymm1,ymm5,ymm1
  2092f1:	c4 c2 c5 47 eb       	vpsllvq ymm5,ymm7,ymm11
  2092f6:	c5 d5 eb db          	vpor   ymm3,ymm5,ymm3
  2092fa:	c4 c2 bd 47 ea       	vpsllvq ymm5,ymm8,ymm10
  2092ff:	c4 e2 7d 32 74 39 10 	vpmovzxbq ymm6,DWORD PTR [rcx+rdi*1+0x10]
  209306:	c4 e2 7d 32 7c 39 14 	vpmovzxbq ymm7,DWORD PTR [rcx+rdi*1+0x14]
  20930d:	c4 62 7d 32 44 39 18 	vpmovzxbq ymm8,DWORD PTR [rcx+rdi*1+0x18]
  209314:	c5 d5 eb d2          	vpor   ymm2,ymm5,ymm2
  209318:	c4 e2 7d 32 6c 39 1c 	vpmovzxbq ymm5,DWORD PTR [rcx+rdi*1+0x1c]
  20931f:	c4 62 7d 59 15 98 6f 	vpbroadcastq ymm10,QWORD PTR [rip+0xffffffffffff6f98]        # 2002c0 <app_mask+0x40>
  209326:	ff ff 
  209328:	c4 41 35 d4 d2       	vpaddq ymm10,ymm9,ymm10
  20932d:	c4 62 7d 59 1d d2 6e 	vpbroadcastq ymm11,QWORD PTR [rip+0xffffffffffff6ed2]        # 200208 <__unnamed_90+0x28>
  209334:	ff ff 
  209336:	c4 41 35 d4 cb       	vpaddq ymm9,ymm9,ymm11
  20933b:	c4 41 2d db d5       	vpand  ymm10,ymm10,ymm13
  209340:	c4 41 35 db cd       	vpand  ymm9,ymm9,ymm13
  209345:	c4 c2 cd 47 f2       	vpsllvq ymm6,ymm6,ymm10
  20934a:	c5 cd eb c0          	vpor   ymm0,ymm6,ymm0
  20934e:	c4 c2 c5 47 f1       	vpsllvq ymm6,ymm7,ymm9
  209353:	c5 cd eb c9          	vpor   ymm1,ymm6,ymm1
  209357:	c4 c2 bd 47 f2       	vpsllvq ymm6,ymm8,ymm10
  20935c:	c5 cd eb db          	vpor   ymm3,ymm6,ymm3
  209360:	c4 c2 d5 47 e9       	vpsllvq ymm5,ymm5,ymm9
  209365:	c5 d5 eb d2          	vpor   ymm2,ymm5,ymm2
            for (bytes) |b, index| {
  209369:	48 83 c7 20          	add    rdi,0x20
  20936d:	c4 c1 5d d4 e4       	vpaddq ymm4,ymm4,ymm12
  209372:	48 83 c6 02          	add    rsi,0x2
  209376:	0f 85 34 ff ff ff    	jne    2092b0 <dumpCurrentStackTrace+0x3d0>
  20937c:	4d 85 c0             	test   r8,r8
  20937f:	74 53                	je     2093d4 <dumpCurrentStackTrace+0x4f4>
                result = result | (T(b) << @intCast(ShiftType, index * 8));
  209381:	c4 e2 7d 32 6c 39 0c 	vpmovzxbq ymm5,DWORD PTR [rcx+rdi*1+0xc]
  209388:	c5 dd 73 f4 03       	vpsllq ymm4,ymm4,0x3
  20938d:	c4 c1 5d d4 f4       	vpaddq ymm6,ymm4,ymm12
  209392:	c4 c1 4d db f5       	vpand  ymm6,ymm6,ymm13
  209397:	c4 e2 d5 47 ee       	vpsllvq ymm5,ymm5,ymm6
  20939c:	c4 e2 7d 32 7c 39 08 	vpmovzxbq ymm7,DWORD PTR [rcx+rdi*1+0x8]
  2093a3:	c5 d5 eb d2          	vpor   ymm2,ymm5,ymm2
  2093a7:	c4 c1 5d db e5       	vpand  ymm4,ymm4,ymm13
  2093ac:	c4 e2 c5 47 ec       	vpsllvq ymm5,ymm7,ymm4
  2093b1:	c5 d5 eb db          	vpor   ymm3,ymm5,ymm3
  2093b5:	c4 e2 7d 32 6c 39 04 	vpmovzxbq ymm5,DWORD PTR [rcx+rdi*1+0x4]
  2093bc:	c4 e2 d5 47 ee       	vpsllvq ymm5,ymm5,ymm6
  2093c1:	c5 d5 eb c9          	vpor   ymm1,ymm5,ymm1
  2093c5:	c4 e2 7d 32 2c 39    	vpmovzxbq ymm5,DWORD PTR [rcx+rdi*1]
  2093cb:	c4 e2 d5 47 e4       	vpsllvq ymm4,ymm5,ymm4
  2093d0:	c5 dd eb c0          	vpor   ymm0,ymm4,ymm0
  2093d4:	c5 f5 eb ca          	vpor   ymm1,ymm1,ymm2
  2093d8:	c5 fd eb c3          	vpor   ymm0,ymm0,ymm3
  2093dc:	c5 fd eb c1          	vpor   ymm0,ymm0,ymm1
  2093e0:	c4 e3 7d 39 c1 01    	vextracti128 xmm1,ymm0,0x1
  2093e6:	c5 fd eb c1          	vpor   ymm0,ymm0,ymm1
  2093ea:	c5 f9 70 c8 4e       	vpshufd xmm1,xmm0,0x4e
  2093ef:	c5 fd eb c1          	vpor   ymm0,ymm0,ymm1
  2093f3:	c4 e1 f9 7e c6       	vmovq  rsi,xmm0
  2093f8:	48 39 d8             	cmp    rax,rbx
            for (bytes) |b, index| {
  2093fb:	74 31                	je     20942e <dumpCurrentStackTrace+0x54e>
  2093fd:	48 29 d8             	sub    rax,rbx
  209400:	48 01 d9             	add    rcx,rbx
  209403:	48 c1 e3 03          	shl    rbx,0x3
  209407:	66 0f 1f 84 00 00 00 	nop    WORD PTR [rax+rax*1+0x0]
  20940e:	00 00 
                result = result | (T(b) << @intCast(ShiftType, index * 8));
  209410:	0f b6 39             	movzx  edi,BYTE PTR [rcx]
  209413:	89 da                	mov    edx,ebx
  209415:	80 e2 38             	and    dl,0x38
  209418:	c4 e2 e9 f7 d7       	shlx   rdx,rdi,rdx
  20941d:	48 09 d6             	or     rsi,rdx
            for (bytes) |b, index| {
  209420:	48 83 c3 08          	add    rbx,0x8
  209424:	48 83 c1 01          	add    rcx,0x1
  209428:	48 83 c0 ff          	add    rax,0xffffffffffffffff
  20942c:	75 e2                	jne    209410 <dumpCurrentStackTrace+0x530>
            if (st.debug_ranges) |debug_ranges| {
  20942e:	48 8b 44 24 68       	mov    rax,QWORD PTR [rsp+0x68]
  209433:	48 8b 80 80 00 00 00 	mov    rax,QWORD PTR [rax+0x80]
  20943a:	48 85 c0             	test   rax,rax
  20943d:	0f 85 fd 00 00 00    	jne    209540 <dumpCurrentStackTrace+0x660>
  209443:	e9 68 02 00 00       	jmp    2096b0 <dumpCurrentStackTrace+0x7d0>
  209448:	c5 f9 ef c0          	vpxor  xmm0,xmm0,xmm0
  20944c:	31 ff                	xor    edi,edi
  20944e:	c5 fd 6f 25 4a 6d ff 	vmovdqa ymm4,YMMWORD PTR [rip+0xffffffffffff6d4a]        # 2001a0 <__unnamed_90-0x40>
  209455:	ff 
  209456:	c5 f1 ef c9          	vpxor  xmm1,xmm1,xmm1
  20945a:	c5 e1 ef db          	vpxor  xmm3,xmm3,xmm3
  20945e:	c5 e9 ef d2          	vpxor  xmm2,xmm2,xmm2
  209462:	4d 85 c0             	test   r8,r8
  209465:	0f 85 16 ff ff ff    	jne    209381 <dumpCurrentStackTrace+0x4a1>
  20946b:	e9 64 ff ff ff       	jmp    2093d4 <dumpCurrentStackTrace+0x4f4>
        if (compile_unit.pc_range) |range| {
  209470:	4f 8d 34 64          	lea    r14,[r12+r12*2]
  209474:	49 c1 e6 04          	shl    r14,0x4
  209478:	43 80 7c 31 28 01    	cmp    BYTE PTR [r9+r14*1+0x28],0x1
  20947e:	75 12                	jne    209492 <dumpCurrentStackTrace+0x5b2>
            if (target_address >= range.start and target_address < range.end) return compile_unit;
  209480:	4f 39 6c 31 18       	cmp    QWORD PTR [r9+r14*1+0x18],r13
  209485:	77 0b                	ja     209492 <dumpCurrentStackTrace+0x5b2>
  209487:	4f 39 6c 31 20       	cmp    QWORD PTR [r9+r14*1+0x20],r13
  20948c:	0f 87 4c 04 00 00    	ja     2098de <dumpCurrentStackTrace+0x9fe>
        if (compile_unit.die.getAttrSecOffset(DW.AT_ranges)) |ranges_offset| {
  209492:	4b 8b 4c 31 08       	mov    rcx,QWORD PTR [r9+r14*1+0x8]
  209497:	48 8b 41 20          	mov    rax,QWORD PTR [rcx+0x20]
        for (self.attrs.toSliceConst()) |*attr| {
  20949b:	48 85 c0             	test   rax,rax
  20949e:	0f 84 0c 02 00 00    	je     2096b0 <dumpCurrentStackTrace+0x7d0>
  2094a4:	4b 8d 14 31          	lea    rdx,[r9+r14*1]
  2094a8:	48 83 c2 08          	add    rdx,0x8
  2094ac:	48 89 94 24 38 01 00 	mov    QWORD PTR [rsp+0x138],rdx
  2094b3:	00 
  2094b4:	48 8b 49 10          	mov    rcx,QWORD PTR [rcx+0x10]
            if (attr.id == id) return &attr.value;
  2094b8:	48 83 c1 20          	add    rcx,0x20
  2094bc:	31 d2                	xor    edx,edx
  2094be:	66 90                	xchg   ax,ax
  2094c0:	48 83 79 e0 55       	cmp    QWORD PTR [rcx-0x20],0x55
  2094c5:	74 19                	je     2094e0 <dumpCurrentStackTrace+0x600>
        for (self.attrs.toSliceConst()) |*attr| {
  2094c7:	48 83 c2 01          	add    rdx,0x1
  2094cb:	48 83 c1 28          	add    rcx,0x28
  2094cf:	48 39 c2             	cmp    rdx,rax
  2094d2:	72 ec                	jb     2094c0 <dumpCurrentStackTrace+0x5e0>
  2094d4:	e9 d7 01 00 00       	jmp    2096b0 <dumpCurrentStackTrace+0x7d0>
  2094d9:	0f 1f 80 00 00 00 00 	nop    DWORD PTR [rax+0x0]
  2094e0:	8a 01                	mov    al,BYTE PTR [rcx]
  2094e2:	3c 05                	cmp    al,0x5
        return switch (form_value.*) {
  2094e4:	74 41                	je     209527 <dumpCurrentStackTrace+0x647>
  2094e6:	3c 02                	cmp    al,0x2
  2094e8:	0f 85 d2 01 00 00    	jne    2096c0 <dumpCurrentStackTrace+0x7e0>
            FormValue.Const => |value| value.asUnsignedLe(),
  2094ee:	48 8b 41 f0          	mov    rax,QWORD PTR [rcx-0x10]
        if (self.payload.len > @sizeOf(u64)) return error.InvalidDebugInfo;
  2094f2:	48 83 f8 08          	cmp    rax,0x8
  2094f6:	0f 87 c4 01 00 00    	ja     2096c0 <dumpCurrentStackTrace+0x7e0>
            FormValue.Const => |value| value.asUnsignedLe(),
  2094fc:	8a 51 f8             	mov    dl,BYTE PTR [rcx-0x8]
        if (self.signed) return error.InvalidDebugInfo;
  2094ff:	84 d2                	test   dl,dl
  209501:	0f 85 b9 01 00 00    	jne    2096c0 <dumpCurrentStackTrace+0x7e0>
  209507:	48 85 c0             	test   rax,rax
  20950a:	0f 84 7c 01 00 00    	je     20968c <dumpCurrentStackTrace+0x7ac>
  209510:	48 8b 49 e8          	mov    rcx,QWORD PTR [rcx-0x18]
  209514:	48 83 f8 10          	cmp    rax,0x10
  209518:	0f 83 4a fd ff ff    	jae    209268 <dumpCurrentStackTrace+0x388>
  20951e:	31 db                	xor    ebx,ebx
  209520:	31 f6                	xor    esi,esi
  209522:	e9 d6 fe ff ff       	jmp    2093fd <dumpCurrentStackTrace+0x51d>
            FormValue.SecOffset => |value| value,
  209527:	48 8b 71 e8          	mov    rsi,QWORD PTR [rcx-0x18]
            if (st.debug_ranges) |debug_ranges| {
  20952b:	48 8b 44 24 68       	mov    rax,QWORD PTR [rsp+0x68]
  209530:	48 8b 80 80 00 00 00 	mov    rax,QWORD PTR [rax+0x80]
  209537:	48 85 c0             	test   rax,rax
  20953a:	0f 84 70 01 00 00    	je     2096b0 <dumpCurrentStackTrace+0x7d0>
/// Cast an integer to a different integer type. If the value doesn't fit,
/// return an error.
pub fn cast(comptime T: type, x: var) (error{Overflow}!T) {
    comptime assert(@typeId(T) == builtin.TypeId.Int); // must pass an integer
    comptime assert(@typeId(@typeOf(x)) == builtin.TypeId.Int); // must pass an integer
    if (@maxValue(@typeOf(x)) > @maxValue(T) and x > @maxValue(T)) {
  209540:	48 03 70 18          	add    rsi,QWORD PTR [rax+0x18]
  209544:	0f 88 76 01 00 00    	js     2096c0 <dumpCurrentStackTrace+0x7e0>
    return syscall3(SYS_lseek, @intCast(usize, fd), @bitCast(usize, offset), ref_pos);
  20954a:	48 8b 44 24 68       	mov    rax,QWORD PTR [rsp+0x68]
  20954f:	48 63 38             	movsxd rdi,DWORD PTR [rax]
  209552:	b8 08 00 00 00       	mov    eax,0x8
  209557:	31 d2                	xor    edx,edx
  209559:	0f 05                	syscall 
    return if (signed_r > -4096 and signed_r < 0) @intCast(usize, -signed_r) else 0;
  20955b:	48 3d 01 f0 ff ff    	cmp    rax,0xfffffffffffff001
        switch (builtin.os) {
            Os.linux, Os.macosx, Os.ios => {
                const ipos = try math.cast(isize, pos);
                const result = posix.lseek(self.handle, ipos, posix.SEEK_SET);
                const err = posix.getErrno(result);
                if (err > 0) {
  209561:	0f 83 59 01 00 00    	jae    2096c0 <dumpCurrentStackTrace+0x7e0>
  209567:	4c 89 cb             	mov    rbx,r9
            try self.readNoEof(bytes[0..]);
  20956a:	48 8d 84 24 b8 00 00 	lea    rax,[rsp+0xb8]
  209571:	00 
  209572:	48 89 44 24 08       	mov    QWORD PTR [rsp+0x8],rax
  209577:	48 c7 44 24 10 08 00 	mov    QWORD PTR [rsp+0x10],0x8
  20957e:	00 00 
            return self.readFn(self, buffer);
  209580:	48 8d 7c 24 20       	lea    rdi,[rsp+0x20]
  209585:	48 8d b4 24 d0 00 00 	lea    rsi,[rsp+0xd0]
  20958c:	00 
  20958d:	48 8d 54 24 08       	lea    rdx,[rsp+0x8]
  209592:	c5 f8 77             	vzeroupper 
  209595:	ff 94 24 d0 00 00 00 	call   QWORD PTR [rsp+0xd0]
            const amt_read = try self.read(buf);
  20959c:	66 83 7c 24 20 00    	cmp    WORD PTR [rsp+0x20],0x0
  2095a2:	0f 85 18 01 00 00    	jne    2096c0 <dumpCurrentStackTrace+0x7e0>
  2095a8:	48 8b 44 24 28       	mov    rax,QWORD PTR [rsp+0x28]
  2095ad:	0f 1f 00             	nop    DWORD PTR [rax]
            if (amt_read < buf.len) return error.EndOfStream;
  2095b0:	48 3b 44 24 10       	cmp    rax,QWORD PTR [rsp+0x10]
  2095b5:	0f 82 05 01 00 00    	jb     2096c0 <dumpCurrentStackTrace+0x7e0>
                result = result | (T(b) << @intCast(ShiftType, index * 8));
  2095bb:	4c 8b bc 24 b8 00 00 	mov    r15,QWORD PTR [rsp+0xb8]
  2095c2:	00 
            try self.readNoEof(bytes[0..]);
  2095c3:	48 8d 84 24 b8 00 00 	lea    rax,[rsp+0xb8]
  2095ca:	00 
  2095cb:	48 89 44 24 08       	mov    QWORD PTR [rsp+0x8],rax
  2095d0:	48 c7 44 24 10 08 00 	mov    QWORD PTR [rsp+0x10],0x8
  2095d7:	00 00 
            return self.readFn(self, buffer);
  2095d9:	48 8d 7c 24 20       	lea    rdi,[rsp+0x20]
  2095de:	48 8d b4 24 d0 00 00 	lea    rsi,[rsp+0xd0]
  2095e5:	00 
  2095e6:	48 8d 54 24 08       	lea    rdx,[rsp+0x8]
  2095eb:	ff 94 24 d0 00 00 00 	call   QWORD PTR [rsp+0xd0]
            const amt_read = try self.read(buf);
  2095f2:	66 83 7c 24 20 00    	cmp    WORD PTR [rsp+0x20],0x0
  2095f8:	0f 85 c2 00 00 00    	jne    2096c0 <dumpCurrentStackTrace+0x7e0>
  2095fe:	48 8b 44 24 10       	mov    rax,QWORD PTR [rsp+0x10]
  209603:	48 39 44 24 28       	cmp    QWORD PTR [rsp+0x28],rax
  209608:	0f 82 b2 00 00 00    	jb     2096c0 <dumpCurrentStackTrace+0x7e0>
  20960e:	48 8b 84 24 b8 00 00 	mov    rax,QWORD PTR [rsp+0xb8]
  209615:	00 
                    if (begin_addr == 0 and end_addr == 0) {
  209616:	48 89 c1             	mov    rcx,rax
  209619:	4c 09 f9             	or     rcx,r15
  20961c:	c5 7d 6f a4 24 00 01 	vmovdqa ymm12,YMMWORD PTR [rsp+0x100]
  209623:	00 00 
  209625:	c5 7d 6f ac 24 e0 00 	vmovdqa ymm13,YMMWORD PTR [rsp+0xe0]
  20962c:	00 00 
  20962e:	49 89 d9             	mov    r9,rbx
  209631:	74 7d                	je     2096b0 <dumpCurrentStackTrace+0x7d0>
                    if (begin_addr == @maxValue(usize)) {
  209633:	49 83 ff ff          	cmp    r15,0xffffffffffffffff
  209637:	74 0e                	je     209647 <dumpCurrentStackTrace+0x767>
                    if (target_address >= begin_addr and target_address < end_addr) {
  209639:	4d 39 ef             	cmp    r15,r13
  20963c:	77 09                	ja     209647 <dumpCurrentStackTrace+0x767>
  20963e:	4c 39 e8             	cmp    rax,r13
  209641:	0f 87 8d 02 00 00    	ja     2098d4 <dumpCurrentStackTrace+0x9f4>
            try self.readNoEof(bytes[0..]);
  209647:	48 8d 84 24 b8 00 00 	lea    rax,[rsp+0xb8]
  20964e:	00 
  20964f:	48 89 44 24 08       	mov    QWORD PTR [rsp+0x8],rax
  209654:	48 c7 44 24 10 08 00 	mov    QWORD PTR [rsp+0x10],0x8
  20965b:	00 00 
            return self.readFn(self, buffer);
  20965d:	48 8d 7c 24 20       	lea    rdi,[rsp+0x20]
  209662:	48 8d b4 24 d0 00 00 	lea    rsi,[rsp+0xd0]
  209669:	00 
  20966a:	48 8d 54 24 08       	lea    rdx,[rsp+0x8]
  20966f:	c5 f8 77             	vzeroupper 
  209672:	ff 94 24 d0 00 00 00 	call   QWORD PTR [rsp+0xd0]
  209679:	48 8b 44 24 28       	mov    rax,QWORD PTR [rsp+0x28]
            const amt_read = try self.read(buf);
  20967e:	66 83 7c 24 20 00    	cmp    WORD PTR [rsp+0x20],0x0
  209684:	0f 84 26 ff ff ff    	je     2095b0 <dumpCurrentStackTrace+0x6d0>
  20968a:	eb 34                	jmp    2096c0 <dumpCurrentStackTrace+0x7e0>
        return switch (form_value.*) {
  20968c:	31 f6                	xor    esi,esi
            if (st.debug_ranges) |debug_ranges| {
  20968e:	48 8b 44 24 68       	mov    rax,QWORD PTR [rsp+0x68]
  209693:	48 8b 80 80 00 00 00 	mov    rax,QWORD PTR [rax+0x80]
  20969a:	48 85 c0             	test   rax,rax
  20969d:	0f 85 9d fe ff ff    	jne    209540 <dumpCurrentStackTrace+0x660>
  2096a3:	66 66 66 66 2e 0f 1f 	data16 data16 data16 nop WORD PTR cs:[rax+rax*1+0x0]
  2096aa:	84 00 00 00 00 00 
    for (st.compile_unit_list.toSlice()) |*compile_unit| {
  2096b0:	49 83 c4 01          	add    r12,0x1
  2096b4:	4c 3b 64 24 78       	cmp    r12,QWORD PTR [rsp+0x78]
  2096b9:	0f 82 b1 fd ff ff    	jb     209470 <dumpCurrentStackTrace+0x590>
  2096bf:	90                   	nop
  2096c0:	4c 8b 64 24 70       	mov    r12,QWORD PTR [rsp+0x70]
            return std.fmt.format(self, Error, self.writeFn, format, args);
  2096c5:	4d 8b 34 24          	mov    r14,QWORD PTR [r12]
                if (tty_color) {
  2096c9:	80 7c 24 07 00       	cmp    BYTE PTR [rsp+0x7],0x0
  2096ce:	74 70                	je     209740 <dumpCurrentStackTrace+0x860>
                        try output(context, fmt[start_index..i]);
  2096d0:	4c 89 e7             	mov    rdi,r12
  2096d3:	48 8d 35 2e 75 01 00 	lea    rsi,[rip+0x1752e]        # 220c08 <__unnamed_15>
  2096da:	c5 f8 77             	vzeroupper 
  2096dd:	41 ff d6             	call   r14
  2096e0:	41 89 c7             	mov    r15d,eax
  2096e3:	66 45 85 ff          	test   r15w,r15w
  2096e7:	0f 85 a3 01 00 00    	jne    209890 <dumpCurrentStackTrace+0x9b0>
    var buf: [max_int_digits - 1]u8 = undefined;
  2096ed:	c5 fc 10 05 3a d3 ff 	vmovups ymm0,YMMWORD PTR [rip+0xffffffffffffd33a]        # 206a2f <__unnamed_3+0x1f>
  2096f4:	ff 
  2096f5:	c5 fc 11 44 24 3f    	vmovups YMMWORD PTR [rsp+0x3f],ymm0
  2096fb:	c5 fe 6f 05 0d d3 ff 	vmovdqu ymm0,YMMWORD PTR [rip+0xffffffffffffd30d]        # 206a10 <__unnamed_3>
  209702:	ff 
  209703:	c5 fe 7f 44 24 20    	vmovdqu YMMWORD PTR [rsp+0x20],ymm0
        buf[index] = digitToChar(@intCast(u8, digit), uppercase);
  209709:	44 89 e8             	mov    eax,r13d
  20970c:	24 0f                	and    al,0xf
    return value;
}

fn digitToChar(digit: u8, uppercase: bool) u8 {
    return switch (digit) {
        0...9 => digit + '0',
  20970e:	b1 30                	mov    cl,0x30
  209710:	3c 0a                	cmp    al,0xa
  209712:	72 02                	jb     209716 <dumpCurrentStackTrace+0x836>
  209714:	b1 57                	mov    cl,0x57
  209716:	00 c1                	add    cl,al
        buf[index] = digitToChar(@intCast(u8, digit), uppercase);
  209718:	88 4c 24 5f          	mov    BYTE PTR [rsp+0x5f],cl
  20971c:	b8 40 00 00 00       	mov    eax,0x40
        if (a == 0) break;
  209721:	49 83 fd 10          	cmp    r13,0x10
  209725:	73 7e                	jae    2097a5 <dumpCurrentStackTrace+0x8c5>
  209727:	48 8d 4c 24 5f       	lea    rcx,[rsp+0x5f]
  20972c:	e9 af 00 00 00       	jmp    2097e0 <dumpCurrentStackTrace+0x900>
  209731:	66 66 66 66 66 66 2e 	data16 data16 data16 data16 data16 nop WORD PTR cs:[rax+rax*1+0x0]
  209738:	0f 1f 84 00 00 00 00 
  20973f:	00 
                        try output(context, fmt[start_index..i]);
  209740:	4c 89 e7             	mov    rdi,r12
  209743:	48 8d 35 de 74 01 00 	lea    rsi,[rip+0x174de]        # 220c28 <__unnamed_16>
  20974a:	c5 f8 77             	vzeroupper 
  20974d:	41 ff d6             	call   r14
  209750:	41 89 c7             	mov    r15d,eax
  209753:	66 45 85 ff          	test   r15w,r15w
  209757:	0f 85 33 01 00 00    	jne    209890 <dumpCurrentStackTrace+0x9b0>
    var buf: [max_int_digits - 1]u8 = undefined;
  20975d:	c5 fc 10 05 ca d2 ff 	vmovups ymm0,YMMWORD PTR [rip+0xffffffffffffd2ca]        # 206a2f <__unnamed_3+0x1f>
  209764:	ff 
  209765:	c5 fc 11 44 24 3f    	vmovups YMMWORD PTR [rsp+0x3f],ymm0
  20976b:	c5 fe 6f 05 9d d2 ff 	vmovdqu ymm0,YMMWORD PTR [rip+0xffffffffffffd29d]        # 206a10 <__unnamed_3>
  209772:	ff 
  209773:	c5 fe 7f 44 24 20    	vmovdqu YMMWORD PTR [rsp+0x20],ymm0
        buf[index] = digitToChar(@intCast(u8, digit), uppercase);
  209779:	44 89 e8             	mov    eax,r13d
  20977c:	24 0f                	and    al,0xf
        0...9 => digit + '0',
  20977e:	b1 30                	mov    cl,0x30
  209780:	3c 0a                	cmp    al,0xa
  209782:	72 02                	jb     209786 <dumpCurrentStackTrace+0x8a6>
  209784:	b1 57                	mov    cl,0x57
  209786:	00 c1                	add    cl,al
        buf[index] = digitToChar(@intCast(u8, digit), uppercase);
  209788:	88 4c 24 5f          	mov    BYTE PTR [rsp+0x5f],cl
  20978c:	b8 40 00 00 00       	mov    eax,0x40
        if (a == 0) break;
  209791:	49 83 fd 10          	cmp    r13,0x10
  209795:	0f 83 7e 00 00 00    	jae    209819 <dumpCurrentStackTrace+0x939>
  20979b:	48 8d 4c 24 5f       	lea    rcx,[rsp+0x5f]
  2097a0:	e9 ab 00 00 00       	jmp    209850 <dumpCurrentStackTrace+0x970>
        a /= base;
  2097a5:	4c 89 e9             	mov    rcx,r13
  2097a8:	0f 1f 84 00 00 00 00 	nop    DWORD PTR [rax+rax*1+0x0]
  2097af:	00 
  2097b0:	48 c1 e9 04          	shr    rcx,0x4
        buf[index] = digitToChar(@intCast(u8, digit), uppercase);
  2097b4:	89 ca                	mov    edx,ecx
  2097b6:	80 e2 0f             	and    dl,0xf
        0...9 => digit + '0',
  2097b9:	b3 30                	mov    bl,0x30
  2097bb:	80 fa 0a             	cmp    dl,0xa
  2097be:	72 02                	jb     2097c2 <dumpCurrentStackTrace+0x8e2>
  2097c0:	b3 57                	mov    bl,0x57
  2097c2:	00 d3                	add    bl,dl
        buf[index] = digitToChar(@intCast(u8, digit), uppercase);
  2097c4:	88 5c 04 1e          	mov    BYTE PTR [rsp+rax*1+0x1e],bl
        if (a == 0) break;
  2097c8:	48 83 c0 ff          	add    rax,0xffffffffffffffff
  2097cc:	49 81 fd ff 00 00 00 	cmp    r13,0xff
  2097d3:	49 89 cd             	mov    r13,rcx
  2097d6:	77 d8                	ja     2097b0 <dumpCurrentStackTrace+0x8d0>
        const padded_buf = buf[index - padding ..];
  2097d8:	48 8d 0c 04          	lea    rcx,[rsp+rax*1]
  2097dc:	48 83 c1 1f          	add    rcx,0x1f
  2097e0:	ba 41 00 00 00       	mov    edx,0x41
  2097e5:	48 29 c2             	sub    rdx,rax
  2097e8:	48 89 4c 24 08       	mov    QWORD PTR [rsp+0x8],rcx
  2097ed:	48 89 54 24 10       	mov    QWORD PTR [rsp+0x10],rdx
        return output(context, padded_buf);
  2097f2:	4c 89 e7             	mov    rdi,r12
  2097f5:	48 8d 74 24 08       	lea    rsi,[rsp+0x8]
  2097fa:	c5 f8 77             	vzeroupper 
  2097fd:	41 ff d6             	call   r14
  209800:	41 89 c7             	mov    r15d,eax
                    try formatType(args[next_arg], fmt[s..i], context, Errors, output);
  209803:	66 45 85 ff          	test   r15w,r15w
  209807:	0f 85 83 00 00 00    	jne    209890 <dumpCurrentStackTrace+0x9b0>
        try output(context, fmt[start_index..]);
  20980d:	4c 89 e7             	mov    rdi,r12
  209810:	48 8d 35 01 74 01 00 	lea    rsi,[rip+0x17401]        # 220c18 <__unnamed_17>
  209817:	eb 6a                	jmp    209883 <dumpCurrentStackTrace+0x9a3>
        a /= base;
  209819:	4c 89 e9             	mov    rcx,r13
  20981c:	0f 1f 40 00          	nop    DWORD PTR [rax+0x0]
  209820:	48 c1 e9 04          	shr    rcx,0x4
        buf[index] = digitToChar(@intCast(u8, digit), uppercase);
  209824:	89 ca                	mov    edx,ecx
  209826:	80 e2 0f             	and    dl,0xf
        0...9 => digit + '0',
  209829:	b3 30                	mov    bl,0x30
  20982b:	80 fa 0a             	cmp    dl,0xa
  20982e:	72 02                	jb     209832 <dumpCurrentStackTrace+0x952>
  209830:	b3 57                	mov    bl,0x57
  209832:	00 d3                	add    bl,dl
        buf[index] = digitToChar(@intCast(u8, digit), uppercase);
  209834:	88 5c 04 1e          	mov    BYTE PTR [rsp+rax*1+0x1e],bl
        if (a == 0) break;
  209838:	48 83 c0 ff          	add    rax,0xffffffffffffffff
  20983c:	49 81 fd ff 00 00 00 	cmp    r13,0xff
  209843:	49 89 cd             	mov    r13,rcx
  209846:	77 d8                	ja     209820 <dumpCurrentStackTrace+0x940>
        const padded_buf = buf[index - padding ..];
  209848:	48 8d 0c 04          	lea    rcx,[rsp+rax*1]
  20984c:	48 83 c1 1f          	add    rcx,0x1f
  209850:	ba 41 00 00 00       	mov    edx,0x41
  209855:	48 29 c2             	sub    rdx,rax
  209858:	48 89 4c 24 08       	mov    QWORD PTR [rsp+0x8],rcx
  20985d:	48 89 54 24 10       	mov    QWORD PTR [rsp+0x10],rdx
        return output(context, padded_buf);
  209862:	4c 89 e7             	mov    rdi,r12
  209865:	48 8d 74 24 08       	lea    rsi,[rsp+0x8]
  20986a:	c5 f8 77             	vzeroupper 
  20986d:	41 ff d6             	call   r14
  209870:	41 89 c7             	mov    r15d,eax
                    try formatType(args[next_arg], fmt[s..i], context, Errors, output);
  209873:	66 45 85 ff          	test   r15w,r15w
  209877:	75 17                	jne    209890 <dumpCurrentStackTrace+0x9b0>
        try output(context, fmt[start_index..]);
  209879:	4c 89 e7             	mov    rdi,r12
  20987c:	48 8d 35 b5 73 01 00 	lea    rsi,[rip+0x173b5]        # 220c38 <__unnamed_18>
  209883:	41 ff d6             	call   r14
  209886:	41 89 c7             	mov    r15d,eax
  209889:	0f 1f 80 00 00 00 00 	nop    DWORD PTR [rax+0x0]
  209890:	c5 7d 6f a4 24 00 01 	vmovdqa ymm12,YMMWORD PTR [rsp+0x100]
  209897:	00 00 
  209899:	c5 7d 6f ac 24 e0 00 	vmovdqa ymm13,YMMWORD PTR [rsp+0xe0]
  2098a0:	00 00 
        try printSourceAtAddress(debug_info, out_stream, return_address, tty_color);
  2098a2:	66 45 85 ff          	test   r15w,r15w
  2098a6:	0f 85 fc 0b 00 00    	jne    20a4a8 <dumpCurrentStackTrace+0x15c8>
  2098ac:	31 c0                	xor    eax,eax
  2098ae:	48 8b 8c 24 a8 00 00 	mov    rcx,QWORD PTR [rsp+0xa8]
  2098b5:	00 
  2098b6:	48 8b 94 24 b0 00 00 	mov    rdx,QWORD PTR [rsp+0xb0]
  2098bd:	00 
  2098be:	48 8b 74 24 68       	mov    rsi,QWORD PTR [rsp+0x68]
    while (fp != 0) : (fp = @intToPtr(*const usize, fp).*) {
  2098c3:	48 8b 12             	mov    rdx,QWORD PTR [rdx]
  2098c6:	48 85 d2             	test   rdx,rdx
  2098c9:	0f 85 91 0b 00 00    	jne    20a460 <dumpCurrentStackTrace+0x1580>
  2098cf:	e9 21 0c 00 00       	jmp    20a4f5 <dumpCurrentStackTrace+0x1615>
  2098d4:	48 8b 84 24 38 01 00 	mov    rax,QWORD PTR [rsp+0x138]
  2098db:	00 
  2098dc:	eb 08                	jmp    2098e6 <dumpCurrentStackTrace+0xa06>
            const compile_unit_name = try compile_unit.die.getAttrString(debug_info, DW.AT_name);
  2098de:	4b 8d 04 31          	lea    rax,[r9+r14*1]
  2098e2:	48 83 c0 08          	add    rax,0x8
  2098e6:	48 8b 00             	mov    rax,QWORD PTR [rax]
        }

        pub fn toSliceConst(self: Self) []align(A) const T {
            return self.items[0..self.len];
  2098e9:	48 8b 48 20          	mov    rcx,QWORD PTR [rax+0x20]
        for (self.attrs.toSliceConst()) |*attr| {
  2098ed:	48 85 c9             	test   rcx,rcx
  2098f0:	4c 8b 64 24 70       	mov    r12,QWORD PTR [rsp+0x70]
  2098f5:	0f 84 88 0b 00 00    	je     20a483 <dumpCurrentStackTrace+0x15a3>
  2098fb:	4d 01 f1             	add    r9,r14
  2098fe:	48 8b 40 10          	mov    rax,QWORD PTR [rax+0x10]
  209902:	31 d2                	xor    edx,edx
  209904:	66 66 66 2e 0f 1f 84 	data16 data16 nop WORD PTR cs:[rax+rax*1+0x0]
  20990b:	00 00 00 00 00 
            if (attr.id == id) return &attr.value;
  209910:	48 83 38 03          	cmp    QWORD PTR [rax],0x3
  209914:	74 12                	je     209928 <dumpCurrentStackTrace+0xa48>
        for (self.attrs.toSliceConst()) |*attr| {
  209916:	48 83 c2 01          	add    rdx,0x1
  20991a:	48 83 c0 28          	add    rax,0x28
  20991e:	48 39 ca             	cmp    rdx,rcx
  209921:	72 ed                	jb     209910 <dumpCurrentStackTrace+0xa30>
  209923:	e9 5b 0b 00 00       	jmp    20a483 <dumpCurrentStackTrace+0x15a3>
  209928:	8a 50 20             	mov    dl,BYTE PTR [rax+0x20]
  20992b:	80 fa 0a             	cmp    dl,0xa
        return switch (form_value.*) {
  20992e:	74 2f                	je     20995f <dumpCurrentStackTrace+0xa7f>
  209930:	48 8d 0d 69 be ff ff 	lea    rcx,[rip+0xffffffffffffbe69]        # 2057a0 <__unnamed_19>
  209937:	80 fa 09             	cmp    dl,0x9
  20993a:	0f 85 a4 00 00 00    	jne    2099e4 <dumpCurrentStackTrace+0xb04>
            FormValue.String => |value| value,
  209940:	66 c7 44 24 08 00 00 	mov    WORD PTR [rsp+0x8],0x0
  209947:	c5 fa 6f 40 08       	vmovdqu xmm0,XMMWORD PTR [rax+0x8]
  20994c:	48 8d 44 24 10       	lea    rax,[rsp+0x10]
  209951:	c5 fa 7f 00          	vmovdqu XMMWORD PTR [rax],xmm0
        return switch (form_value.*) {
  209955:	48 8d 4c 24 08       	lea    rcx,[rsp+0x8]
  20995a:	e9 85 00 00 00       	jmp    2099e4 <dumpCurrentStackTrace+0xb04>
            FormValue.StrPtr => |offset| getString(st, offset),
  20995f:	48 8b 70 08          	mov    rsi,QWORD PTR [rax+0x8]
  209963:	48 8b 4c 24 68       	mov    rcx,QWORD PTR [rsp+0x68]
    const pos = st.debug_str.offset + offset;
  209968:	48 8b 41 70          	mov    rax,QWORD PTR [rcx+0x70]
  20996c:	48 03 70 18          	add    rsi,QWORD PTR [rax+0x18]
  209970:	78 45                	js     2099b7 <dumpCurrentStackTrace+0xad7>
    return syscall3(SYS_lseek, @intCast(usize, fd), @bitCast(usize, offset), ref_pos);
  209972:	48 63 39             	movsxd rdi,DWORD PTR [rcx]
  209975:	b8 08 00 00 00       	mov    eax,0x8
  20997a:	31 d2                	xor    edx,edx
  20997c:	0f 05                	syscall 
    return if (signed_r > -4096 and signed_r < 0) @intCast(usize, -signed_r) else 0;
  20997e:	48 89 c1             	mov    rcx,rax
  209981:	48 f7 d9             	neg    rcx
  209984:	48 3d 00 f0 ff ff    	cmp    rax,0xfffffffffffff000
  20998a:	b8 00 00 00 00       	mov    eax,0x0
  20998f:	48 0f 46 c8          	cmovbe rcx,rax
  209993:	66 b8 02 00          	mov    ax,0x2
  209997:	48 83 f9 1d          	cmp    rcx,0x1d
  20999b:	0f 87 96 09 00 00    	ja     20a337 <dumpCurrentStackTrace+0x1457>
  2099a1:	48 8d 15 38 69 ff ff 	lea    rdx,[rip+0xffffffffffff6938]        # 2002e0 <app_mask+0x60>
  2099a8:	48 63 0c 8a          	movsxd rcx,DWORD PTR [rdx+rcx*4]
  2099ac:	48 01 d1             	add    rcx,rdx
  2099af:	ff e1                	jmp    rcx
  2099b1:	66 b8 20 00          	mov    ax,0x20
  2099b5:	eb 04                	jmp    2099bb <dumpCurrentStackTrace+0xadb>
  2099b7:	66 b8 21 00          	mov    ax,0x21
    try st.self_exe_file.seekTo(pos);
  2099bb:	66 89 44 24 20       	mov    WORD PTR [rsp+0x20],ax
  2099c0:	48 8b 84 24 d6 00 00 	mov    rax,QWORD PTR [rsp+0xd6]
  2099c7:	00 
  2099c8:	48 8d 4c 24 5f       	lea    rcx,[rsp+0x5f]
  2099cd:	48 89 41 d1          	mov    QWORD PTR [rcx-0x2f],rax
  2099d1:	c5 fa 6f 84 24 c8 00 	vmovdqu xmm0,XMMWORD PTR [rsp+0xc8]
  2099d8:	00 00 
  2099da:	c5 fa 7f 41 c3       	vmovdqu XMMWORD PTR [rcx-0x3d],xmm0
        return switch (form_value.*) {
  2099df:	48 8d 4c 24 20       	lea    rcx,[rsp+0x20]
  2099e4:	44 0f b7 39          	movzx  r15d,WORD PTR [rcx]
  2099e8:	48 8b 41 10          	mov    rax,QWORD PTR [rcx+0x10]
  2099ec:	48 89 84 24 4e 01 00 	mov    QWORD PTR [rsp+0x14e],rax
  2099f3:	00 
  2099f4:	c5 fa 6f 41 02       	vmovdqu xmm0,XMMWORD PTR [rcx+0x2]
  2099f9:	c5 f9 7f 84 24 40 01 	vmovdqa XMMWORD PTR [rsp+0x140],xmm0
  209a00:	00 00 
            const compile_unit_name = try compile_unit.die.getAttrString(debug_info, DW.AT_name);
  209a02:	66 45 85 ff          	test   r15w,r15w
  209a06:	0f 85 9c 0a 00 00    	jne    20a4a8 <dumpCurrentStackTrace+0x15c8>
  209a0c:	48 8d 84 24 46 01 00 	lea    rax,[rsp+0x146]
  209a13:	00 
  209a14:	c5 fa 6f 00          	vmovdqu xmm0,XMMWORD PTR [rax]
  209a18:	c5 f9 7f 84 24 20 01 	vmovdqa XMMWORD PTR [rsp+0x120],xmm0
  209a1f:	00 00 
            if (getLineNumberInfo(debug_info, compile_unit, address - 1)) |line_info| {
  209a21:	49 8d 4d ff          	lea    rcx,[r13-0x1]
  209a25:	48 8d bc 24 58 01 00 	lea    rdi,[rsp+0x158]
  209a2c:	00 
  209a2d:	48 8b 74 24 68       	mov    rsi,QWORD PTR [rsp+0x68]
  209a32:	4c 89 ca             	mov    rdx,r9
  209a35:	c5 f8 77             	vzeroupper 
  209a38:	e8 83 9b 00 00       	call   2135c0 <getLineNumberInfo>
  209a3d:	44 0f b7 bc 24 58 01 	movzx  r15d,WORD PTR [rsp+0x158]
  209a44:	00 00 
  209a46:	66 45 85 ff          	test   r15w,r15w
  209a4a:	74 77                	je     209ac3 <dumpCurrentStackTrace+0xbe3>
            } else |err| switch (err) {
  209a4c:	44 89 f8             	mov    eax,r15d
  209a4f:	25 fe ff 00 00       	and    eax,0xfffe
  209a54:	83 f8 22             	cmp    eax,0x22
  209a57:	0f 85 4b 0a 00 00    	jne    20a4a8 <dumpCurrentStackTrace+0x15c8>
  209a5d:	4d 8b 34 24          	mov    r14,QWORD PTR [r12]
                        try output(context, fmt[start_index..i]);
  209a61:	4c 89 e7             	mov    rdi,r12
  209a64:	48 8d 35 8d 72 01 00 	lea    rsi,[rip+0x1728d]        # 220cf8 <__unnamed_20>
  209a6b:	41 ff d6             	call   r14
  209a6e:	41 89 c7             	mov    r15d,eax
  209a71:	66 45 85 ff          	test   r15w,r15w
  209a75:	0f 85 15 fe ff ff    	jne    209890 <dumpCurrentStackTrace+0x9b0>
    var buf: [max_int_digits - 1]u8 = undefined;
  209a7b:	c5 fc 10 05 ac cf ff 	vmovups ymm0,YMMWORD PTR [rip+0xffffffffffffcfac]        # 206a2f <__unnamed_3+0x1f>
  209a82:	ff 
  209a83:	c5 fc 11 44 24 3f    	vmovups YMMWORD PTR [rsp+0x3f],ymm0
  209a89:	c5 fe 6f 05 7f cf ff 	vmovdqu ymm0,YMMWORD PTR [rip+0xffffffffffffcf7f]        # 206a10 <__unnamed_3>
  209a90:	ff 
  209a91:	c5 fe 7f 44 24 20    	vmovdqu YMMWORD PTR [rsp+0x20],ymm0
        buf[index] = digitToChar(@intCast(u8, digit), uppercase);
  209a97:	44 89 e8             	mov    eax,r13d
  209a9a:	24 0f                	and    al,0xf
        0...9 => digit + '0',
  209a9c:	b1 30                	mov    cl,0x30
  209a9e:	3c 0a                	cmp    al,0xa
  209aa0:	72 02                	jb     209aa4 <dumpCurrentStackTrace+0xbc4>
  209aa2:	b1 57                	mov    cl,0x57
  209aa4:	00 c1                	add    cl,al
        buf[index] = digitToChar(@intCast(u8, digit), uppercase);
  209aa6:	88 4c 24 5f          	mov    BYTE PTR [rsp+0x5f],cl
  209aaa:	b8 40 00 00 00       	mov    eax,0x40
        if (a == 0) break;
  209aaf:	49 83 fd 10          	cmp    r13,0x10
  209ab3:	0f 83 b8 04 00 00    	jae    209f71 <dumpCurrentStackTrace+0x1091>
  209ab9:	48 8d 4c 24 5f       	lea    rcx,[rsp+0x5f]
  209abe:	e9 ed 04 00 00       	jmp    209fb0 <dumpCurrentStackTrace+0x10d0>
  209ac3:	48 8d 84 24 60 01 00 	lea    rax,[rsp+0x160]
  209aca:	00 
            if (getLineNumberInfo(debug_info, compile_unit, address - 1)) |line_info| {
  209acb:	c5 fe 6f 00          	vmovdqu ymm0,YMMWORD PTR [rax]
  209acf:	c5 fe 7f 84 24 80 00 	vmovdqu YMMWORD PTR [rsp+0x80],ymm0
  209ad6:	00 00 
  209ad8:	48 8b 40 20          	mov    rax,QWORD PTR [rax+0x20]
  209adc:	48 89 84 24 a0 00 00 	mov    QWORD PTR [rsp+0xa0],rax
  209ae3:	00 
  209ae4:	4c 89 e3             	mov    rbx,r12
  209ae7:	4c 8b a4 24 80 00 00 	mov    r12,QWORD PTR [rsp+0x80]
  209aee:	00 
  209aef:	48 8b 84 24 88 00 00 	mov    rax,QWORD PTR [rsp+0x88]
  209af6:	00 
  209af7:	48 89 44 24 78       	mov    QWORD PTR [rsp+0x78],rax
  209afc:	4c 8b 33             	mov    r14,QWORD PTR [rbx]
                if (tty_color) {
  209aff:	80 7c 24 07 00       	cmp    BYTE PTR [rsp+0x7],0x0
  209b04:	0f 84 cb 01 00 00    	je     209cd5 <dumpCurrentStackTrace+0xdf5>
                        try output(context, fmt[start_index..i]);
  209b0a:	48 89 df             	mov    rdi,rbx
  209b0d:	48 8d 35 34 71 01 00 	lea    rsi,[rip+0x17134]        # 220c48 <__unnamed_21>
  209b14:	c5 f8 77             	vzeroupper 
  209b17:	41 ff d6             	call   r14
  209b1a:	41 89 c7             	mov    r15d,eax
  209b1d:	66 45 85 ff          	test   r15w,r15w
  209b21:	0f 85 e0 09 00 00    	jne    20a507 <dumpCurrentStackTrace+0x1627>
                const casted_value = ([]const u8)(value);
  209b27:	48 8d 84 24 90 00 00 	lea    rax,[rsp+0x90]
  209b2e:	00 
  209b2f:	c5 fa 6f 00          	vmovdqu xmm0,XMMWORD PTR [rax]
  209b33:	c5 f9 7f 44 24 20    	vmovdqa XMMWORD PTR [rsp+0x20],xmm0
                return output(context, casted_value);
  209b39:	48 89 df             	mov    rdi,rbx
  209b3c:	48 8d 74 24 20       	lea    rsi,[rsp+0x20]
  209b41:	41 ff d6             	call   r14
  209b44:	41 89 c7             	mov    r15d,eax
                    try formatType(args[next_arg], fmt[0..0], context, Errors, output);
  209b47:	66 45 85 ff          	test   r15w,r15w
  209b4b:	0f 85 b6 09 00 00    	jne    20a507 <dumpCurrentStackTrace+0x1627>
                        try output(context, fmt[start_index..i]);
  209b51:	48 89 df             	mov    rdi,rbx
  209b54:	48 8d 35 fd 70 01 00 	lea    rsi,[rip+0x170fd]        # 220c58 <__unnamed_22>
  209b5b:	41 ff d6             	call   r14
  209b5e:	41 89 c7             	mov    r15d,eax
  209b61:	66 45 85 ff          	test   r15w,r15w
  209b65:	0f 85 c5 09 00 00    	jne    20a530 <dumpCurrentStackTrace+0x1650>
    var buf: [max_int_digits - 1]u8 = undefined;
  209b6b:	c5 fc 10 05 bc ce ff 	vmovups ymm0,YMMWORD PTR [rip+0xffffffffffffcebc]        # 206a2f <__unnamed_3+0x1f>
  209b72:	ff 
  209b73:	c5 fc 11 44 24 3f    	vmovups YMMWORD PTR [rsp+0x3f],ymm0
  209b79:	c5 fe 6f 05 8f ce ff 	vmovdqu ymm0,YMMWORD PTR [rip+0xffffffffffffce8f]        # 206a10 <__unnamed_3>
  209b80:	ff 
  209b81:	c5 fe 7f 44 24 20    	vmovdqu YMMWORD PTR [rsp+0x20],ymm0
        const digit = a % base;
  209b87:	4c 89 e2             	mov    rdx,r12
  209b8a:	48 b8 cd cc cc cc cc 	movabs rax,0xcccccccccccccccd
  209b91:	cc cc cc 
  209b94:	c4 e2 fb f6 c8       	mulx   rcx,rax,rax
  209b99:	c1 e9 02             	shr    ecx,0x2
  209b9c:	81 e1 fe ff ff 3f    	and    ecx,0x3ffffffe
  209ba2:	8d 0c 89             	lea    ecx,[rcx+rcx*4]
  209ba5:	44 89 e0             	mov    eax,r12d
  209ba8:	29 c8                	sub    eax,ecx
        0...9 => digit + '0',
  209baa:	b1 30                	mov    cl,0x30
  209bac:	3c 0a                	cmp    al,0xa
  209bae:	72 02                	jb     209bb2 <dumpCurrentStackTrace+0xcd2>
  209bb0:	b1 57                	mov    cl,0x57
  209bb2:	00 c1                	add    cl,al
        buf[index] = digitToChar(@intCast(u8, digit), uppercase);
  209bb4:	88 4c 24 5f          	mov    BYTE PTR [rsp+0x5f],cl
  209bb8:	b8 40 00 00 00       	mov    eax,0x40
        if (a == 0) break;
  209bbd:	49 83 fc 0a          	cmp    r12,0xa
  209bc1:	73 0d                	jae    209bd0 <dumpCurrentStackTrace+0xcf0>
  209bc3:	48 8d 4c 24 5f       	lea    rcx,[rsp+0x5f]
  209bc8:	eb 58                	jmp    209c22 <dumpCurrentStackTrace+0xd42>
  209bca:	66 0f 1f 44 00 00    	nop    WORD PTR [rax+rax*1+0x0]
        a /= base;
  209bd0:	4c 89 e2             	mov    rdx,r12
  209bd3:	48 b9 cd cc cc cc cc 	movabs rcx,0xcccccccccccccccd
  209bda:	cc cc cc 
  209bdd:	48 89 ce             	mov    rsi,rcx
  209be0:	c4 e2 f3 f6 d6       	mulx   rdx,rcx,rsi
  209be5:	48 c1 ea 03          	shr    rdx,0x3
        const digit = a % base;
  209be9:	c4 e2 f3 f6 f6       	mulx   rsi,rcx,rsi
  209bee:	c1 ee 02             	shr    esi,0x2
  209bf1:	81 e6 fe ff ff 3f    	and    esi,0x3ffffffe
  209bf7:	8d 34 b6             	lea    esi,[rsi+rsi*4]
  209bfa:	89 d1                	mov    ecx,edx
  209bfc:	29 f1                	sub    ecx,esi
        0...9 => digit + '0',
  209bfe:	b3 30                	mov    bl,0x30
  209c00:	80 f9 0a             	cmp    cl,0xa
  209c03:	72 02                	jb     209c07 <dumpCurrentStackTrace+0xd27>
  209c05:	b3 57                	mov    bl,0x57
  209c07:	00 cb                	add    bl,cl
        buf[index] = digitToChar(@intCast(u8, digit), uppercase);
  209c09:	88 5c 04 1e          	mov    BYTE PTR [rsp+rax*1+0x1e],bl
        if (a == 0) break;
  209c0d:	48 83 c0 ff          	add    rax,0xffffffffffffffff
  209c11:	49 83 fc 63          	cmp    r12,0x63
  209c15:	49 89 d4             	mov    r12,rdx
  209c18:	77 b6                	ja     209bd0 <dumpCurrentStackTrace+0xcf0>
        const padded_buf = buf[index - padding ..];
  209c1a:	48 8d 0c 04          	lea    rcx,[rsp+rax*1]
  209c1e:	48 83 c1 1f          	add    rcx,0x1f
  209c22:	ba 41 00 00 00       	mov    edx,0x41
  209c27:	48 29 c2             	sub    rdx,rax
  209c2a:	48 89 4c 24 08       	mov    QWORD PTR [rsp+0x8],rcx
  209c2f:	48 89 54 24 10       	mov    QWORD PTR [rsp+0x10],rdx
  209c34:	4c 8b 64 24 70       	mov    r12,QWORD PTR [rsp+0x70]
        return output(context, padded_buf);
  209c39:	4c 89 e7             	mov    rdi,r12
  209c3c:	48 8d 74 24 08       	lea    rsi,[rsp+0x8]
  209c41:	c5 f8 77             	vzeroupper 
  209c44:	41 ff d6             	call   r14
  209c47:	41 89 c7             	mov    r15d,eax
                    try formatType(args[next_arg], fmt[0..0], context, Errors, output);
  209c4a:	66 45 85 ff          	test   r15w,r15w
  209c4e:	0f 85 e1 08 00 00    	jne    20a535 <dumpCurrentStackTrace+0x1655>
                        try output(context, fmt[start_index..i]);
  209c54:	4c 89 e7             	mov    rdi,r12
  209c57:	48 8d 35 0a 70 01 00 	lea    rsi,[rip+0x1700a]        # 220c68 <__unnamed_23>
  209c5e:	41 ff d6             	call   r14
  209c61:	41 89 c7             	mov    r15d,eax
  209c64:	66 45 85 ff          	test   r15w,r15w
  209c68:	0f 85 c7 08 00 00    	jne    20a535 <dumpCurrentStackTrace+0x1655>
    var buf: [max_int_digits - 1]u8 = undefined;
  209c6e:	c5 fc 10 05 b9 cd ff 	vmovups ymm0,YMMWORD PTR [rip+0xffffffffffffcdb9]        # 206a2f <__unnamed_3+0x1f>
  209c75:	ff 
  209c76:	c5 fc 11 44 24 3f    	vmovups YMMWORD PTR [rsp+0x3f],ymm0
  209c7c:	c5 fe 6f 05 8c cd ff 	vmovdqu ymm0,YMMWORD PTR [rip+0xffffffffffffcd8c]        # 206a10 <__unnamed_3>
  209c83:	ff 
  209c84:	c5 fe 7f 44 24 20    	vmovdqu YMMWORD PTR [rsp+0x20],ymm0
  209c8a:	48 8b 54 24 78       	mov    rdx,QWORD PTR [rsp+0x78]
        const digit = a % base;
  209c8f:	48 b8 cd cc cc cc cc 	movabs rax,0xcccccccccccccccd
  209c96:	cc cc cc 
  209c99:	c4 e2 fb f6 c8       	mulx   rcx,rax,rax
  209c9e:	c1 e9 02             	shr    ecx,0x2
  209ca1:	81 e1 fe ff ff 3f    	and    ecx,0x3ffffffe
  209ca7:	8d 0c 89             	lea    ecx,[rcx+rcx*4]
  209caa:	89 d0                	mov    eax,edx
  209cac:	29 c8                	sub    eax,ecx
        0...9 => digit + '0',
  209cae:	b1 30                	mov    cl,0x30
  209cb0:	3c 0a                	cmp    al,0xa
  209cb2:	72 02                	jb     209cb6 <dumpCurrentStackTrace+0xdd6>
  209cb4:	b1 57                	mov    cl,0x57
  209cb6:	00 c1                	add    cl,al
        buf[index] = digitToChar(@intCast(u8, digit), uppercase);
  209cb8:	88 4c 24 5f          	mov    BYTE PTR [rsp+0x5f],cl
  209cbc:	b9 40 00 00 00       	mov    ecx,0x40
        if (a == 0) break;
  209cc1:	48 83 fa 0a          	cmp    rdx,0xa
  209cc5:	0f 83 62 03 00 00    	jae    20a02d <dumpCurrentStackTrace+0x114d>
  209ccb:	48 8d 44 24 5f       	lea    rax,[rsp+0x5f]
  209cd0:	e9 af 03 00 00       	jmp    20a084 <dumpCurrentStackTrace+0x11a4>
                const casted_value = ([]const u8)(value);
  209cd5:	48 8d 84 24 90 00 00 	lea    rax,[rsp+0x90]
  209cdc:	00 
  209cdd:	c5 fa 6f 00          	vmovdqu xmm0,XMMWORD PTR [rax]
  209ce1:	c5 f9 7f 44 24 20    	vmovdqa XMMWORD PTR [rsp+0x20],xmm0
                return output(context, casted_value);
  209ce7:	48 89 df             	mov    rdi,rbx
  209cea:	48 8d 74 24 20       	lea    rsi,[rsp+0x20]
  209cef:	c5 f8 77             	vzeroupper 
  209cf2:	41 ff d6             	call   r14
  209cf5:	41 89 c7             	mov    r15d,eax
                    try formatType(args[next_arg], fmt[0..0], context, Errors, output);
  209cf8:	66 45 85 ff          	test   r15w,r15w
  209cfc:	0f 85 05 08 00 00    	jne    20a507 <dumpCurrentStackTrace+0x1627>
                        try output(context, fmt[start_index..i]);
  209d02:	48 89 df             	mov    rdi,rbx
  209d05:	48 8d 35 9c 6f 01 00 	lea    rsi,[rip+0x16f9c]        # 220ca8 <__unnamed_24>
  209d0c:	41 ff d6             	call   r14
  209d0f:	41 89 c7             	mov    r15d,eax
  209d12:	66 45 85 ff          	test   r15w,r15w
  209d16:	0f 85 fd 07 00 00    	jne    20a519 <dumpCurrentStackTrace+0x1639>
    var buf: [max_int_digits - 1]u8 = undefined;
  209d1c:	c5 fc 10 05 0b cd ff 	vmovups ymm0,YMMWORD PTR [rip+0xffffffffffffcd0b]        # 206a2f <__unnamed_3+0x1f>
  209d23:	ff 
  209d24:	c5 fc 11 44 24 3f    	vmovups YMMWORD PTR [rsp+0x3f],ymm0
  209d2a:	c5 fe 6f 05 de cc ff 	vmovdqu ymm0,YMMWORD PTR [rip+0xffffffffffffccde]        # 206a10 <__unnamed_3>
  209d31:	ff 
  209d32:	c5 fe 7f 44 24 20    	vmovdqu YMMWORD PTR [rsp+0x20],ymm0
        const digit = a % base;
  209d38:	4c 89 e2             	mov    rdx,r12
  209d3b:	48 b8 cd cc cc cc cc 	movabs rax,0xcccccccccccccccd
  209d42:	cc cc cc 
  209d45:	c4 e2 fb f6 c8       	mulx   rcx,rax,rax
  209d4a:	c1 e9 02             	shr    ecx,0x2
  209d4d:	81 e1 fe ff ff 3f    	and    ecx,0x3ffffffe
  209d53:	8d 0c 89             	lea    ecx,[rcx+rcx*4]
  209d56:	44 89 e0             	mov    eax,r12d
  209d59:	29 c8                	sub    eax,ecx
        0...9 => digit + '0',
  209d5b:	b1 30                	mov    cl,0x30
  209d5d:	3c 0a                	cmp    al,0xa
  209d5f:	72 02                	jb     209d63 <dumpCurrentStackTrace+0xe83>
  209d61:	b1 57                	mov    cl,0x57
  209d63:	00 c1                	add    cl,al
        buf[index] = digitToChar(@intCast(u8, digit), uppercase);
  209d65:	88 4c 24 5f          	mov    BYTE PTR [rsp+0x5f],cl
  209d69:	b8 40 00 00 00       	mov    eax,0x40
        if (a == 0) break;
  209d6e:	49 83 fc 0a          	cmp    r12,0xa
  209d72:	73 0c                	jae    209d80 <dumpCurrentStackTrace+0xea0>
  209d74:	48 8d 4c 24 5f       	lea    rcx,[rsp+0x5f]
  209d79:	eb 57                	jmp    209dd2 <dumpCurrentStackTrace+0xef2>
  209d7b:	0f 1f 44 00 00       	nop    DWORD PTR [rax+rax*1+0x0]
        a /= base;
  209d80:	4c 89 e2             	mov    rdx,r12
  209d83:	48 b9 cd cc cc cc cc 	movabs rcx,0xcccccccccccccccd
  209d8a:	cc cc cc 
  209d8d:	48 89 ce             	mov    rsi,rcx
  209d90:	c4 e2 f3 f6 d6       	mulx   rdx,rcx,rsi
  209d95:	48 c1 ea 03          	shr    rdx,0x3
        const digit = a % base;
  209d99:	c4 e2 f3 f6 f6       	mulx   rsi,rcx,rsi
  209d9e:	c1 ee 02             	shr    esi,0x2
  209da1:	81 e6 fe ff ff 3f    	and    esi,0x3ffffffe
  209da7:	8d 34 b6             	lea    esi,[rsi+rsi*4]
  209daa:	89 d1                	mov    ecx,edx
  209dac:	29 f1                	sub    ecx,esi
        0...9 => digit + '0',
  209dae:	b3 30                	mov    bl,0x30
  209db0:	80 f9 0a             	cmp    cl,0xa
  209db3:	72 02                	jb     209db7 <dumpCurrentStackTrace+0xed7>
  209db5:	b3 57                	mov    bl,0x57
  209db7:	00 cb                	add    bl,cl
        buf[index] = digitToChar(@intCast(u8, digit), uppercase);
  209db9:	88 5c 04 1e          	mov    BYTE PTR [rsp+rax*1+0x1e],bl
        if (a == 0) break;
  209dbd:	48 83 c0 ff          	add    rax,0xffffffffffffffff
  209dc1:	49 83 fc 63          	cmp    r12,0x63
  209dc5:	49 89 d4             	mov    r12,rdx
  209dc8:	77 b6                	ja     209d80 <dumpCurrentStackTrace+0xea0>
        const padded_buf = buf[index - padding ..];
  209dca:	48 8d 0c 04          	lea    rcx,[rsp+rax*1]
  209dce:	48 83 c1 1f          	add    rcx,0x1f
  209dd2:	ba 41 00 00 00       	mov    edx,0x41
  209dd7:	48 29 c2             	sub    rdx,rax
  209dda:	48 89 4c 24 08       	mov    QWORD PTR [rsp+0x8],rcx
  209ddf:	48 89 54 24 10       	mov    QWORD PTR [rsp+0x10],rdx
  209de4:	4c 8b 64 24 70       	mov    r12,QWORD PTR [rsp+0x70]
        return output(context, padded_buf);
  209de9:	4c 89 e7             	mov    rdi,r12
  209dec:	48 8d 74 24 08       	lea    rsi,[rsp+0x8]
  209df1:	c5 f8 77             	vzeroupper 
  209df4:	41 ff d6             	call   r14
  209df7:	41 89 c7             	mov    r15d,eax
                    try formatType(args[next_arg], fmt[0..0], context, Errors, output);
  209dfa:	66 45 85 ff          	test   r15w,r15w
  209dfe:	0f 85 31 07 00 00    	jne    20a535 <dumpCurrentStackTrace+0x1655>
                        try output(context, fmt[start_index..i]);
  209e04:	4c 89 e7             	mov    rdi,r12
  209e07:	48 8d 35 aa 6e 01 00 	lea    rsi,[rip+0x16eaa]        # 220cb8 <__unnamed_25>
  209e0e:	41 ff d6             	call   r14
  209e11:	41 89 c7             	mov    r15d,eax
  209e14:	66 45 85 ff          	test   r15w,r15w
  209e18:	0f 85 17 07 00 00    	jne    20a535 <dumpCurrentStackTrace+0x1655>
    var buf: [max_int_digits - 1]u8 = undefined;
  209e1e:	c5 fc 10 05 09 cc ff 	vmovups ymm0,YMMWORD PTR [rip+0xffffffffffffcc09]        # 206a2f <__unnamed_3+0x1f>
  209e25:	ff 
  209e26:	c5 fc 11 44 24 3f    	vmovups YMMWORD PTR [rsp+0x3f],ymm0
  209e2c:	c5 fe 6f 05 dc cb ff 	vmovdqu ymm0,YMMWORD PTR [rip+0xffffffffffffcbdc]        # 206a10 <__unnamed_3>
  209e33:	ff 
  209e34:	c5 fe 7f 44 24 20    	vmovdqu YMMWORD PTR [rsp+0x20],ymm0
  209e3a:	48 8b 7c 24 78       	mov    rdi,QWORD PTR [rsp+0x78]
        const digit = a % base;
  209e3f:	48 89 fa             	mov    rdx,rdi
  209e42:	48 b8 cd cc cc cc cc 	movabs rax,0xcccccccccccccccd
  209e49:	cc cc cc 
  209e4c:	c4 e2 fb f6 c8       	mulx   rcx,rax,rax
  209e51:	c1 e9 02             	shr    ecx,0x2
  209e54:	81 e1 fe ff ff 3f    	and    ecx,0x3ffffffe
  209e5a:	8d 0c 89             	lea    ecx,[rcx+rcx*4]
  209e5d:	89 f8                	mov    eax,edi
  209e5f:	29 c8                	sub    eax,ecx
        0...9 => digit + '0',
  209e61:	b1 30                	mov    cl,0x30
  209e63:	3c 0a                	cmp    al,0xa
  209e65:	72 02                	jb     209e69 <dumpCurrentStackTrace+0xf89>
  209e67:	b1 57                	mov    cl,0x57
  209e69:	00 c1                	add    cl,al
        buf[index] = digitToChar(@intCast(u8, digit), uppercase);
  209e6b:	88 4c 24 5f          	mov    BYTE PTR [rsp+0x5f],cl
  209e6f:	b8 40 00 00 00       	mov    eax,0x40
        if (a == 0) break;
  209e74:	48 83 ff 0a          	cmp    rdi,0xa
  209e78:	73 16                	jae    209e90 <dumpCurrentStackTrace+0xfb0>
  209e7a:	48 8d 4c 24 5f       	lea    rcx,[rsp+0x5f]
  209e7f:	eb 61                	jmp    209ee2 <dumpCurrentStackTrace+0x1002>
  209e81:	66 66 66 66 66 66 2e 	data16 data16 data16 data16 data16 nop WORD PTR cs:[rax+rax*1+0x0]
  209e88:	0f 1f 84 00 00 00 00 
  209e8f:	00 
        a /= base;
  209e90:	48 89 fa             	mov    rdx,rdi
  209e93:	48 b9 cd cc cc cc cc 	movabs rcx,0xcccccccccccccccd
  209e9a:	cc cc cc 
  209e9d:	48 89 ce             	mov    rsi,rcx
  209ea0:	c4 e2 f3 f6 d6       	mulx   rdx,rcx,rsi
  209ea5:	48 c1 ea 03          	shr    rdx,0x3
        const digit = a % base;
  209ea9:	c4 e2 f3 f6 f6       	mulx   rsi,rcx,rsi
  209eae:	c1 ee 02             	shr    esi,0x2
  209eb1:	81 e6 fe ff ff 3f    	and    esi,0x3ffffffe
  209eb7:	8d 34 b6             	lea    esi,[rsi+rsi*4]
  209eba:	89 d1                	mov    ecx,edx
  209ebc:	29 f1                	sub    ecx,esi
        0...9 => digit + '0',
  209ebe:	b3 30                	mov    bl,0x30
  209ec0:	80 f9 0a             	cmp    cl,0xa
  209ec3:	72 02                	jb     209ec7 <dumpCurrentStackTrace+0xfe7>
  209ec5:	b3 57                	mov    bl,0x57
  209ec7:	00 cb                	add    bl,cl
        buf[index] = digitToChar(@intCast(u8, digit), uppercase);
  209ec9:	88 5c 04 1e          	mov    BYTE PTR [rsp+rax*1+0x1e],bl
        if (a == 0) break;
  209ecd:	48 83 c0 ff          	add    rax,0xffffffffffffffff
  209ed1:	48 83 ff 63          	cmp    rdi,0x63
  209ed5:	48 89 d7             	mov    rdi,rdx
  209ed8:	77 b6                	ja     209e90 <dumpCurrentStackTrace+0xfb0>
        const padded_buf = buf[index - padding ..];
  209eda:	48 8d 0c 04          	lea    rcx,[rsp+rax*1]
  209ede:	48 83 c1 1f          	add    rcx,0x1f
  209ee2:	ba 41 00 00 00       	mov    edx,0x41
  209ee7:	48 29 c2             	sub    rdx,rax
  209eea:	48 89 4c 24 08       	mov    QWORD PTR [rsp+0x8],rcx
  209eef:	48 89 54 24 10       	mov    QWORD PTR [rsp+0x10],rdx
        return output(context, padded_buf);
  209ef4:	4c 89 e7             	mov    rdi,r12
  209ef7:	48 8d 74 24 08       	lea    rsi,[rsp+0x8]
  209efc:	c5 f8 77             	vzeroupper 
  209eff:	41 ff d6             	call   r14
  209f02:	41 89 c7             	mov    r15d,eax
                    try formatType(args[next_arg], fmt[0..0], context, Errors, output);
  209f05:	66 45 85 ff          	test   r15w,r15w
  209f09:	0f 85 26 06 00 00    	jne    20a535 <dumpCurrentStackTrace+0x1655>
                        try output(context, fmt[start_index..i]);
  209f0f:	4c 89 e7             	mov    rdi,r12
  209f12:	48 8d 35 af 6d 01 00 	lea    rsi,[rip+0x16daf]        # 220cc8 <__unnamed_26>
  209f19:	41 ff d6             	call   r14
  209f1c:	41 89 c7             	mov    r15d,eax
  209f1f:	66 45 85 ff          	test   r15w,r15w
  209f23:	0f 85 0c 06 00 00    	jne    20a535 <dumpCurrentStackTrace+0x1655>
    var buf: [max_int_digits - 1]u8 = undefined;
  209f29:	c5 fc 10 05 fe ca ff 	vmovups ymm0,YMMWORD PTR [rip+0xffffffffffffcafe]        # 206a2f <__unnamed_3+0x1f>
  209f30:	ff 
  209f31:	c5 fc 11 44 24 3f    	vmovups YMMWORD PTR [rsp+0x3f],ymm0
  209f37:	c5 fe 6f 05 d1 ca ff 	vmovdqu ymm0,YMMWORD PTR [rip+0xffffffffffffcad1]        # 206a10 <__unnamed_3>
  209f3e:	ff 
  209f3f:	c5 fe 7f 44 24 20    	vmovdqu YMMWORD PTR [rsp+0x20],ymm0
        buf[index] = digitToChar(@intCast(u8, digit), uppercase);
  209f45:	44 89 e8             	mov    eax,r13d
  209f48:	24 0f                	and    al,0xf
        0...9 => digit + '0',
  209f4a:	b1 30                	mov    cl,0x30
  209f4c:	3c 0a                	cmp    al,0xa
  209f4e:	72 02                	jb     209f52 <dumpCurrentStackTrace+0x1072>
  209f50:	b1 57                	mov    cl,0x57
  209f52:	00 c1                	add    cl,al
        buf[index] = digitToChar(@intCast(u8, digit), uppercase);
  209f54:	88 4c 24 5f          	mov    BYTE PTR [rsp+0x5f],cl
  209f58:	b8 40 00 00 00       	mov    eax,0x40
        if (a == 0) break;
  209f5d:	49 83 fd 10          	cmp    r13,0x10
  209f61:	0f 83 ac 01 00 00    	jae    20a113 <dumpCurrentStackTrace+0x1233>
  209f67:	48 8d 4c 24 5f       	lea    rcx,[rsp+0x5f]
  209f6c:	e9 df 01 00 00       	jmp    20a150 <dumpCurrentStackTrace+0x1270>
        a /= base;
  209f71:	4c 89 e9             	mov    rcx,r13
  209f74:	66 66 66 2e 0f 1f 84 	data16 data16 nop WORD PTR cs:[rax+rax*1+0x0]
  209f7b:	00 00 00 00 00 
  209f80:	48 c1 e9 04          	shr    rcx,0x4
        buf[index] = digitToChar(@intCast(u8, digit), uppercase);
  209f84:	89 ca                	mov    edx,ecx
  209f86:	80 e2 0f             	and    dl,0xf
        0...9 => digit + '0',
  209f89:	b3 30                	mov    bl,0x30
  209f8b:	80 fa 0a             	cmp    dl,0xa
  209f8e:	72 02                	jb     209f92 <dumpCurrentStackTrace+0x10b2>
  209f90:	b3 57                	mov    bl,0x57
  209f92:	00 d3                	add    bl,dl
        buf[index] = digitToChar(@intCast(u8, digit), uppercase);
  209f94:	88 5c 04 1e          	mov    BYTE PTR [rsp+rax*1+0x1e],bl
        if (a == 0) break;
  209f98:	48 83 c0 ff          	add    rax,0xffffffffffffffff
  209f9c:	49 81 fd ff 00 00 00 	cmp    r13,0xff
  209fa3:	49 89 cd             	mov    r13,rcx
  209fa6:	77 d8                	ja     209f80 <dumpCurrentStackTrace+0x10a0>
        const padded_buf = buf[index - padding ..];
  209fa8:	48 8d 0c 04          	lea    rcx,[rsp+rax*1]
  209fac:	48 83 c1 1f          	add    rcx,0x1f
  209fb0:	ba 41 00 00 00       	mov    edx,0x41
  209fb5:	48 29 c2             	sub    rdx,rax
  209fb8:	48 89 4c 24 08       	mov    QWORD PTR [rsp+0x8],rcx
  209fbd:	48 89 54 24 10       	mov    QWORD PTR [rsp+0x10],rdx
        return output(context, padded_buf);
  209fc2:	4c 89 e7             	mov    rdi,r12
  209fc5:	48 8d 74 24 08       	lea    rsi,[rsp+0x8]
  209fca:	c5 f8 77             	vzeroupper 
  209fcd:	41 ff d6             	call   r14
  209fd0:	41 89 c7             	mov    r15d,eax
                    try formatType(args[next_arg], fmt[s..i], context, Errors, output);
  209fd3:	66 45 85 ff          	test   r15w,r15w
  209fd7:	0f 85 b3 f8 ff ff    	jne    209890 <dumpCurrentStackTrace+0x9b0>
                        try output(context, fmt[start_index..i]);
  209fdd:	4c 89 e7             	mov    rdi,r12
  209fe0:	48 8d 35 21 6d 01 00 	lea    rsi,[rip+0x16d21]        # 220d08 <__unnamed_27>
  209fe7:	41 ff d6             	call   r14
  209fea:	41 89 c7             	mov    r15d,eax
  209fed:	66 45 85 ff          	test   r15w,r15w
  209ff1:	0f 85 99 f8 ff ff    	jne    209890 <dumpCurrentStackTrace+0x9b0>
                const casted_value = ([]const u8)(value);
  209ff7:	c5 f9 6f 84 24 20 01 	vmovdqa xmm0,XMMWORD PTR [rsp+0x120]
  209ffe:	00 00 
  20a000:	c5 f9 7f 44 24 20    	vmovdqa XMMWORD PTR [rsp+0x20],xmm0
                return output(context, casted_value);
  20a006:	4c 89 e7             	mov    rdi,r12
  20a009:	48 8d 74 24 20       	lea    rsi,[rsp+0x20]
  20a00e:	41 ff d6             	call   r14
  20a011:	41 89 c7             	mov    r15d,eax
                    try formatType(args[next_arg], fmt[0..0], context, Errors, output);
  20a014:	66 45 85 ff          	test   r15w,r15w
  20a018:	0f 85 72 f8 ff ff    	jne    209890 <dumpCurrentStackTrace+0x9b0>
        try output(context, fmt[start_index..]);
  20a01e:	4c 89 e7             	mov    rdi,r12
  20a021:	48 8d 35 f0 6c 01 00 	lea    rsi,[rip+0x16cf0]        # 220d18 <__unnamed_28>
  20a028:	e9 56 f8 ff ff       	jmp    209883 <dumpCurrentStackTrace+0x9a3>
  20a02d:	48 89 d0             	mov    rax,rdx
        a /= base;
  20a030:	48 89 c2             	mov    rdx,rax
  20a033:	48 be cd cc cc cc cc 	movabs rsi,0xcccccccccccccccd
  20a03a:	cc cc cc 
  20a03d:	48 89 f7             	mov    rdi,rsi
  20a040:	c4 e2 cb f6 d7       	mulx   rdx,rsi,rdi
  20a045:	48 c1 ea 03          	shr    rdx,0x3
        const digit = a % base;
  20a049:	c4 e2 cb f6 ff       	mulx   rdi,rsi,rdi
  20a04e:	c1 ef 02             	shr    edi,0x2
  20a051:	81 e7 fe ff ff 3f    	and    edi,0x3ffffffe
  20a057:	8d 3c bf             	lea    edi,[rdi+rdi*4]
  20a05a:	89 d6                	mov    esi,edx
  20a05c:	29 fe                	sub    esi,edi
        0...9 => digit + '0',
  20a05e:	b3 30                	mov    bl,0x30
  20a060:	40 80 fe 0a          	cmp    sil,0xa
  20a064:	72 02                	jb     20a068 <dumpCurrentStackTrace+0x1188>
  20a066:	b3 57                	mov    bl,0x57
  20a068:	40 00 f3             	add    bl,sil
        buf[index] = digitToChar(@intCast(u8, digit), uppercase);
  20a06b:	88 5c 0c 1e          	mov    BYTE PTR [rsp+rcx*1+0x1e],bl
        if (a == 0) break;
  20a06f:	48 83 c1 ff          	add    rcx,0xffffffffffffffff
  20a073:	48 83 f8 63          	cmp    rax,0x63
  20a077:	48 89 d0             	mov    rax,rdx
  20a07a:	77 b4                	ja     20a030 <dumpCurrentStackTrace+0x1150>
        const padded_buf = buf[index - padding ..];
  20a07c:	48 8d 04 0c          	lea    rax,[rsp+rcx*1]
  20a080:	48 83 c0 1f          	add    rax,0x1f
  20a084:	ba 41 00 00 00       	mov    edx,0x41
  20a089:	48 29 ca             	sub    rdx,rcx
  20a08c:	48 89 44 24 08       	mov    QWORD PTR [rsp+0x8],rax
  20a091:	48 89 54 24 10       	mov    QWORD PTR [rsp+0x10],rdx
        return output(context, padded_buf);
  20a096:	4c 89 e7             	mov    rdi,r12
  20a099:	48 8d 74 24 08       	lea    rsi,[rsp+0x8]
  20a09e:	c5 f8 77             	vzeroupper 
  20a0a1:	41 ff d6             	call   r14
  20a0a4:	41 89 c7             	mov    r15d,eax
                    try formatType(args[next_arg], fmt[0..0], context, Errors, output);
  20a0a7:	66 45 85 ff          	test   r15w,r15w
  20a0ab:	0f 85 84 04 00 00    	jne    20a535 <dumpCurrentStackTrace+0x1655>
                        try output(context, fmt[start_index..i]);
  20a0b1:	4c 89 e7             	mov    rdi,r12
  20a0b4:	48 8d 35 bd 6b 01 00 	lea    rsi,[rip+0x16bbd]        # 220c78 <__unnamed_29>
  20a0bb:	41 ff d6             	call   r14
  20a0be:	41 89 c7             	mov    r15d,eax
  20a0c1:	66 45 85 ff          	test   r15w,r15w
  20a0c5:	0f 85 6a 04 00 00    	jne    20a535 <dumpCurrentStackTrace+0x1655>
    var buf: [max_int_digits - 1]u8 = undefined;
  20a0cb:	c5 fc 10 05 5c c9 ff 	vmovups ymm0,YMMWORD PTR [rip+0xffffffffffffc95c]        # 206a2f <__unnamed_3+0x1f>
  20a0d2:	ff 
  20a0d3:	c5 fc 11 44 24 3f    	vmovups YMMWORD PTR [rsp+0x3f],ymm0
  20a0d9:	c5 fe 6f 05 2f c9 ff 	vmovdqu ymm0,YMMWORD PTR [rip+0xffffffffffffc92f]        # 206a10 <__unnamed_3>
  20a0e0:	ff 
  20a0e1:	c5 fe 7f 44 24 20    	vmovdqu YMMWORD PTR [rsp+0x20],ymm0
        buf[index] = digitToChar(@intCast(u8, digit), uppercase);
  20a0e7:	44 89 e8             	mov    eax,r13d
  20a0ea:	24 0f                	and    al,0xf
        0...9 => digit + '0',
  20a0ec:	b1 30                	mov    cl,0x30
  20a0ee:	3c 0a                	cmp    al,0xa
  20a0f0:	72 02                	jb     20a0f4 <dumpCurrentStackTrace+0x1214>
  20a0f2:	b1 57                	mov    cl,0x57
  20a0f4:	00 c1                	add    cl,al
        buf[index] = digitToChar(@intCast(u8, digit), uppercase);
  20a0f6:	88 4c 24 5f          	mov    BYTE PTR [rsp+0x5f],cl
  20a0fa:	b8 40 00 00 00       	mov    eax,0x40
        if (a == 0) break;
  20a0ff:	49 83 fd 10          	cmp    r13,0x10
  20a103:	0f 83 d4 00 00 00    	jae    20a1dd <dumpCurrentStackTrace+0x12fd>
  20a109:	48 8d 4c 24 5f       	lea    rcx,[rsp+0x5f]
  20a10e:	e9 fd 00 00 00       	jmp    20a210 <dumpCurrentStackTrace+0x1330>
        a /= base;
  20a113:	4c 89 e9             	mov    rcx,r13
  20a116:	66 2e 0f 1f 84 00 00 	nop    WORD PTR cs:[rax+rax*1+0x0]
  20a11d:	00 00 00 
  20a120:	48 c1 e9 04          	shr    rcx,0x4
        buf[index] = digitToChar(@intCast(u8, digit), uppercase);
  20a124:	89 ca                	mov    edx,ecx
  20a126:	80 e2 0f             	and    dl,0xf
        0...9 => digit + '0',
  20a129:	b3 30                	mov    bl,0x30
  20a12b:	80 fa 0a             	cmp    dl,0xa
  20a12e:	72 02                	jb     20a132 <dumpCurrentStackTrace+0x1252>
  20a130:	b3 57                	mov    bl,0x57
  20a132:	00 d3                	add    bl,dl
        buf[index] = digitToChar(@intCast(u8, digit), uppercase);
  20a134:	88 5c 04 1e          	mov    BYTE PTR [rsp+rax*1+0x1e],bl
        if (a == 0) break;
  20a138:	48 83 c0 ff          	add    rax,0xffffffffffffffff
  20a13c:	49 81 fd ff 00 00 00 	cmp    r13,0xff
  20a143:	49 89 cd             	mov    r13,rcx
  20a146:	77 d8                	ja     20a120 <dumpCurrentStackTrace+0x1240>
        const padded_buf = buf[index - padding ..];
  20a148:	48 8d 0c 04          	lea    rcx,[rsp+rax*1]
  20a14c:	48 83 c1 1f          	add    rcx,0x1f
  20a150:	ba 41 00 00 00       	mov    edx,0x41
  20a155:	48 29 c2             	sub    rdx,rax
  20a158:	48 89 4c 24 08       	mov    QWORD PTR [rsp+0x8],rcx
  20a15d:	48 89 54 24 10       	mov    QWORD PTR [rsp+0x10],rdx
        return output(context, padded_buf);
  20a162:	4c 89 e7             	mov    rdi,r12
  20a165:	48 8d 74 24 08       	lea    rsi,[rsp+0x8]
  20a16a:	c5 f8 77             	vzeroupper 
  20a16d:	41 ff d6             	call   r14
  20a170:	41 89 c7             	mov    r15d,eax
                    try formatType(args[next_arg], fmt[s..i], context, Errors, output);
  20a173:	66 45 85 ff          	test   r15w,r15w
  20a177:	0f 85 b8 03 00 00    	jne    20a535 <dumpCurrentStackTrace+0x1655>
                        try output(context, fmt[start_index..i]);
  20a17d:	4c 89 e7             	mov    rdi,r12
  20a180:	48 8d 35 51 6b 01 00 	lea    rsi,[rip+0x16b51]        # 220cd8 <__unnamed_30>
  20a187:	41 ff d6             	call   r14
  20a18a:	41 89 c7             	mov    r15d,eax
  20a18d:	66 45 85 ff          	test   r15w,r15w
  20a191:	0f 85 9e 03 00 00    	jne    20a535 <dumpCurrentStackTrace+0x1655>
                const casted_value = ([]const u8)(value);
  20a197:	c5 f9 6f 84 24 20 01 	vmovdqa xmm0,XMMWORD PTR [rsp+0x120]
  20a19e:	00 00 
  20a1a0:	c5 f9 7f 44 24 20    	vmovdqa XMMWORD PTR [rsp+0x20],xmm0
                return output(context, casted_value);
  20a1a6:	4c 89 e7             	mov    rdi,r12
  20a1a9:	48 8d 74 24 20       	lea    rsi,[rsp+0x20]
  20a1ae:	41 ff d6             	call   r14
  20a1b1:	41 89 c7             	mov    r15d,eax
                    try formatType(args[next_arg], fmt[0..0], context, Errors, output);
  20a1b4:	66 45 85 ff          	test   r15w,r15w
  20a1b8:	0f 85 77 03 00 00    	jne    20a535 <dumpCurrentStackTrace+0x1655>
        try output(context, fmt[start_index..]);
  20a1be:	4c 89 e7             	mov    rdi,r12
  20a1c1:	48 8d 35 20 6b 01 00 	lea    rsi,[rip+0x16b20]        # 220ce8 <__unnamed_31>
  20a1c8:	41 ff d6             	call   r14
  20a1cb:	41 89 c7             	mov    r15d,eax
                    try out_stream.print(
  20a1ce:	66 45 85 ff          	test   r15w,r15w
  20a1d2:	0f 84 29 02 00 00    	je     20a401 <dumpCurrentStackTrace+0x1521>
  20a1d8:	e9 58 03 00 00       	jmp    20a535 <dumpCurrentStackTrace+0x1655>
        a /= base;
  20a1dd:	4c 89 e9             	mov    rcx,r13
  20a1e0:	48 c1 e9 04          	shr    rcx,0x4
        buf[index] = digitToChar(@intCast(u8, digit), uppercase);
  20a1e4:	89 ca                	mov    edx,ecx
  20a1e6:	80 e2 0f             	and    dl,0xf
        0...9 => digit + '0',
  20a1e9:	b3 30                	mov    bl,0x30
  20a1eb:	80 fa 0a             	cmp    dl,0xa
  20a1ee:	72 02                	jb     20a1f2 <dumpCurrentStackTrace+0x1312>
  20a1f0:	b3 57                	mov    bl,0x57
  20a1f2:	00 d3                	add    bl,dl
        buf[index] = digitToChar(@intCast(u8, digit), uppercase);
  20a1f4:	88 5c 04 1e          	mov    BYTE PTR [rsp+rax*1+0x1e],bl
        if (a == 0) break;
  20a1f8:	48 83 c0 ff          	add    rax,0xffffffffffffffff
  20a1fc:	49 81 fd ff 00 00 00 	cmp    r13,0xff
  20a203:	49 89 cd             	mov    r13,rcx
  20a206:	77 d8                	ja     20a1e0 <dumpCurrentStackTrace+0x1300>
        const padded_buf = buf[index - padding ..];
  20a208:	48 8d 0c 04          	lea    rcx,[rsp+rax*1]
  20a20c:	48 83 c1 1f          	add    rcx,0x1f
  20a210:	ba 41 00 00 00       	mov    edx,0x41
  20a215:	48 29 c2             	sub    rdx,rax
  20a218:	48 89 4c 24 08       	mov    QWORD PTR [rsp+0x8],rcx
  20a21d:	48 89 54 24 10       	mov    QWORD PTR [rsp+0x10],rdx
        return output(context, padded_buf);
  20a222:	4c 89 e7             	mov    rdi,r12
  20a225:	48 8d 74 24 08       	lea    rsi,[rsp+0x8]
  20a22a:	c5 f8 77             	vzeroupper 
  20a22d:	41 ff d6             	call   r14
  20a230:	41 89 c7             	mov    r15d,eax
                    try formatType(args[next_arg], fmt[s..i], context, Errors, output);
  20a233:	66 45 85 ff          	test   r15w,r15w
  20a237:	0f 85 f8 02 00 00    	jne    20a535 <dumpCurrentStackTrace+0x1655>
                        try output(context, fmt[start_index..i]);
  20a23d:	4c 89 e7             	mov    rdi,r12
  20a240:	48 8d 35 41 6a 01 00 	lea    rsi,[rip+0x16a41]        # 220c88 <__unnamed_32>
  20a247:	41 ff d6             	call   r14
  20a24a:	41 89 c7             	mov    r15d,eax
  20a24d:	66 45 85 ff          	test   r15w,r15w
  20a251:	0f 85 de 02 00 00    	jne    20a535 <dumpCurrentStackTrace+0x1655>
                const casted_value = ([]const u8)(value);
  20a257:	c5 f9 6f 84 24 20 01 	vmovdqa xmm0,XMMWORD PTR [rsp+0x120]
  20a25e:	00 00 
  20a260:	c5 f9 7f 44 24 20    	vmovdqa XMMWORD PTR [rsp+0x20],xmm0
                return output(context, casted_value);
  20a266:	4c 89 e7             	mov    rdi,r12
  20a269:	48 8d 74 24 20       	lea    rsi,[rsp+0x20]
  20a26e:	41 ff d6             	call   r14
  20a271:	41 89 c7             	mov    r15d,eax
                    try formatType(args[next_arg], fmt[0..0], context, Errors, output);
  20a274:	66 45 85 ff          	test   r15w,r15w
  20a278:	0f 85 b7 02 00 00    	jne    20a535 <dumpCurrentStackTrace+0x1655>
        try output(context, fmt[start_index..]);
  20a27e:	4c 89 e7             	mov    rdi,r12
  20a281:	48 8d 35 10 6a 01 00 	lea    rsi,[rip+0x16a10]        # 220c98 <__unnamed_33>
  20a288:	41 ff d6             	call   r14
  20a28b:	41 89 c7             	mov    r15d,eax
                    try out_stream.print(
  20a28e:	66 45 85 ff          	test   r15w,r15w
  20a292:	0f 85 9d 02 00 00    	jne    20a535 <dumpCurrentStackTrace+0x1655>
                    if (printLineFromFile(out_stream, line_info)) {
  20a298:	4c 89 e7             	mov    rdi,r12
  20a29b:	48 8d b4 24 80 00 00 	lea    rsi,[rsp+0x80]
  20a2a2:	00 
  20a2a3:	e8 08 b3 00 00       	call   2155b0 <printLineFromFile>
  20a2a8:	41 89 c7             	mov    r15d,eax
  20a2ab:	41 0f b7 c7          	movzx  eax,r15w
  20a2af:	83 f8 24             	cmp    eax,0x24
  20a2b2:	0f 84 49 01 00 00    	je     20a401 <dumpCurrentStackTrace+0x1521>
  20a2b8:	66 45 85 ff          	test   r15w,r15w
  20a2bc:	0f 85 84 00 00 00    	jne    20a346 <dumpCurrentStackTrace+0x1466>
  20a2c2:	48 8b 44 24 78       	mov    rax,QWORD PTR [rsp+0x78]
                        if (line_info.column == 0) {
  20a2c7:	48 85 c0             	test   rax,rax
  20a2ca:	0f 84 16 01 00 00    	je     20a3e6 <dumpCurrentStackTrace+0x1506>
  20a2d0:	48 83 f8 01          	cmp    rax,0x1
  20a2d4:	74 41                	je     20a317 <dumpCurrentStackTrace+0x1437>
  20a2d6:	bb 01 00 00 00       	mov    ebx,0x1
  20a2db:	c6 44 24 08 20       	mov    BYTE PTR [rsp+0x8],0x20
        pub fn write(self: *Self, bytes: []const u8) !void {
            return self.writeFn(self, bytes);
        }

        pub fn writeByte(self: *Self, byte: u8) !void {
            const slice = (*[1]u8)(&byte)[0..];
  20a2e0:	48 8d 44 24 08       	lea    rax,[rsp+0x8]
  20a2e5:	48 89 44 24 20       	mov    QWORD PTR [rsp+0x20],rax
  20a2ea:	48 c7 44 24 28 01 00 	mov    QWORD PTR [rsp+0x28],0x1
  20a2f1:	00 00 
            return self.writeFn(self, slice);
  20a2f3:	4c 89 e7             	mov    rdi,r12
  20a2f6:	48 8d 74 24 20       	lea    rsi,[rsp+0x20]
  20a2fb:	41 ff 14 24          	call   QWORD PTR [r12]
  20a2ff:	41 89 c7             	mov    r15d,eax
                                    try out_stream.writeByte(' ');
  20a302:	66 45 85 ff          	test   r15w,r15w
  20a306:	0f 85 29 02 00 00    	jne    20a535 <dumpCurrentStackTrace+0x1655>
  20a30c:	48 83 c3 01          	add    rbx,0x1
                                while (col_i < line_info.column) : (col_i += 1) {
  20a310:	48 3b 5c 24 78       	cmp    rbx,QWORD PTR [rsp+0x78]
  20a315:	72 c4                	jb     20a2db <dumpCurrentStackTrace+0x13fb>
            return self.writeFn(self, bytes);
  20a317:	4c 89 e7             	mov    rdi,r12
  20a31a:	48 8d 35 d7 68 01 00 	lea    rsi,[rip+0x168d7]        # 220bf8 <__unnamed_34>
  20a321:	41 ff 14 24          	call   QWORD PTR [r12]
  20a325:	41 89 c7             	mov    r15d,eax
  20a328:	66 45 85 ff          	test   r15w,r15w
  20a32c:	0f 84 cf 00 00 00    	je     20a401 <dumpCurrentStackTrace+0x1521>
  20a332:	e9 39 02 00 00       	jmp    20a570 <dumpCurrentStackTrace+0x1690>
  20a337:	48 83 f9 4b          	cmp    rcx,0x4b
  20a33b:	0f 85 7a f6 ff ff    	jne    2099bb <dumpCurrentStackTrace+0xadb>
  20a341:	e9 6b f6 ff ff       	jmp    2099b1 <dumpCurrentStackTrace+0xad1>
        const bytes = @sliceToBytes(memory);
  20a346:	48 8b 84 24 98 00 00 	mov    rax,QWORD PTR [rsp+0x98]
  20a34d:	00 
        if (bytes.len == 0) return;
  20a34e:	48 85 c0             	test   rax,rax
  20a351:	0f 84 39 f5 ff ff    	je     209890 <dumpCurrentStackTrace+0x9b0>
  20a357:	48 8b bc 24 a0 00 00 	mov    rdi,QWORD PTR [rsp+0xa0]
  20a35e:	00 
        const bytes = @sliceToBytes(memory);
  20a35f:	48 8b 8c 24 90 00 00 	mov    rcx,QWORD PTR [rsp+0x90]
  20a366:	00 
        self.freeFn(self, non_const_ptr[0..bytes.len]);
  20a367:	48 8b 57 10          	mov    rdx,QWORD PTR [rdi+0x10]
  20a36b:	48 89 4c 24 20       	mov    QWORD PTR [rsp+0x20],rcx
  20a370:	48 89 44 24 28       	mov    QWORD PTR [rsp+0x28],rax
  20a375:	48 8d 74 24 20       	lea    rsi,[rsp+0x20]
  20a37a:	ff d2                	call   rdx
  20a37c:	c5 7d 6f a4 24 00 01 	vmovdqa ymm12,YMMWORD PTR [rsp+0x100]
  20a383:	00 00 
  20a385:	c5 7d 6f ac 24 e0 00 	vmovdqa ymm13,YMMWORD PTR [rsp+0xe0]
  20a38c:	00 00 
        try printSourceAtAddress(debug_info, out_stream, return_address, tty_color);
  20a38e:	66 45 85 ff          	test   r15w,r15w
  20a392:	0f 84 14 f5 ff ff    	je     2098ac <dumpCurrentStackTrace+0x9cc>
  20a398:	e9 0b 01 00 00       	jmp    20a4a8 <dumpCurrentStackTrace+0x15c8>
  20a39d:	48 8b 4c 24 68       	mov    rcx,QWORD PTR [rsp+0x68]
            var in_file_stream = io.FileInStream.init(&self.self_exe_file);
  20a3a2:	48 89 8c 24 b8 00 00 	mov    QWORD PTR [rsp+0xb8],rcx
  20a3a9:	00 
  20a3aa:	48 8d 05 3f 57 00 00 	lea    rax,[rip+0x573f]        # 20faf0 <FileInStream_readFn>
  20a3b1:	48 89 84 24 c0 00 00 	mov    QWORD PTR [rsp+0xc0],rax
  20a3b8:	00 
  20a3b9:	48 8b b1 a0 00 00 00 	mov    rsi,QWORD PTR [rcx+0xa0]
  20a3c0:	4c 8d 74 24 20       	lea    r14,[rsp+0x20]
            return readStringRaw(self.allocator(), in_stream);
  20a3c5:	4c 89 f7             	mov    rdi,r14
  20a3c8:	48 8d 94 24 c0 00 00 	lea    rdx,[rsp+0xc0]
  20a3cf:	00 
  20a3d0:	4c 89 cb             	mov    rbx,r9
  20a3d3:	c5 f8 77             	vzeroupper 
  20a3d6:	e8 95 8d 00 00       	call   213170 <readStringRaw>
  20a3db:	49 89 d9             	mov    r9,rbx
        return switch (form_value.*) {
  20a3de:	4c 89 f1             	mov    rcx,r14
  20a3e1:	e9 fe f5 ff ff       	jmp    2099e4 <dumpCurrentStackTrace+0xb04>
  20a3e6:	4c 89 e7             	mov    rdi,r12
  20a3e9:	48 8d 35 f8 67 01 00 	lea    rsi,[rip+0x167f8]        # 220be8 <__unnamed_1>
  20a3f0:	41 ff 14 24          	call   QWORD PTR [r12]
  20a3f4:	41 89 c7             	mov    r15d,eax
  20a3f7:	66 45 85 ff          	test   r15w,r15w
  20a3fb:	0f 85 6f 01 00 00    	jne    20a570 <dumpCurrentStackTrace+0x1690>
        const bytes = @sliceToBytes(memory);
  20a401:	48 8b 84 24 98 00 00 	mov    rax,QWORD PTR [rsp+0x98]
  20a408:	00 
        if (bytes.len == 0) return;
  20a409:	48 85 c0             	test   rax,rax
  20a40c:	74 25                	je     20a433 <dumpCurrentStackTrace+0x1553>
  20a40e:	48 8b bc 24 a0 00 00 	mov    rdi,QWORD PTR [rsp+0xa0]
  20a415:	00 
        const bytes = @sliceToBytes(memory);
  20a416:	48 8b 8c 24 90 00 00 	mov    rcx,QWORD PTR [rsp+0x90]
  20a41d:	00 
        self.freeFn(self, non_const_ptr[0..bytes.len]);
  20a41e:	48 8b 57 10          	mov    rdx,QWORD PTR [rdi+0x10]
  20a422:	48 89 4c 24 20       	mov    QWORD PTR [rsp+0x20],rcx
  20a427:	48 89 44 24 28       	mov    QWORD PTR [rsp+0x28],rax
  20a42c:	48 8d 74 24 20       	lea    rsi,[rsp+0x20]
  20a431:	ff d2                	call   rdx
  20a433:	48 8b 8c 24 a8 00 00 	mov    rcx,QWORD PTR [rsp+0xa8]
  20a43a:	00 
  20a43b:	48 8b 94 24 b0 00 00 	mov    rdx,QWORD PTR [rsp+0xb0]
  20a442:	00 
  20a443:	c5 7d 6f a4 24 00 01 	vmovdqa ymm12,YMMWORD PTR [rsp+0x100]
  20a44a:	00 00 
  20a44c:	c5 7d 6f ac 24 e0 00 	vmovdqa ymm13,YMMWORD PTR [rsp+0xe0]
  20a453:	00 00 
  20a455:	31 c0                	xor    eax,eax
  20a457:	e9 62 f4 ff ff       	jmp    2098be <dumpCurrentStackTrace+0x9de>
  20a45c:	0f 1f 40 00          	nop    DWORD PTR [rax+0x0]
        const return_address = @intToPtr(*const usize, fp + @sizeOf(usize)).*;
  20a460:	4c 8b 6a 08          	mov    r13,QWORD PTR [rdx+0x8]
                if (return_address == addr) {
  20a464:	49 39 cd             	cmp    r13,rcx
        switch (addr_state) {
  20a467:	0f 84 b3 ed ff ff    	je     209220 <dumpCurrentStackTrace+0x340>
  20a46d:	f6 d0                	not    al
  20a46f:	a8 01                	test   al,0x1
  20a471:	b0 01                	mov    al,0x1
  20a473:	0f 85 a7 ed ff ff    	jne    209220 <dumpCurrentStackTrace+0x340>
    while (fp != 0) : (fp = @intToPtr(*const usize, fp).*) {
  20a479:	48 8b 12             	mov    rdx,QWORD PTR [rdx]
  20a47c:	48 85 d2             	test   rdx,rdx
  20a47f:	75 df                	jne    20a460 <dumpCurrentStackTrace+0x1580>
  20a481:	eb 72                	jmp    20a4f5 <dumpCurrentStackTrace+0x1615>
        const form_value = self.getAttr(id) orelse return error.MissingDebugInfo;
  20a483:	48 8b 05 0e b3 ff ff 	mov    rax,QWORD PTR [rip+0xffffffffffffb30e]        # 205798 <__unnamed_35+0x10>
  20a48a:	48 89 84 24 4e 01 00 	mov    QWORD PTR [rsp+0x14e],rax
  20a491:	00 
  20a492:	c5 fa 6f 05 f0 b2 ff 	vmovdqu xmm0,XMMWORD PTR [rip+0xffffffffffffb2f0]        # 20578a <__unnamed_35+0x2>
  20a499:	ff 
  20a49a:	c5 f9 7f 84 24 40 01 	vmovdqa XMMWORD PTR [rsp+0x140],xmm0
  20a4a1:	00 00 
  20a4a3:	66 41 bf 22 00       	mov    r15w,0x22
            return std.fmt.format(self, Error, self.writeFn, format, args);
  20a4a8:	49 8b 1c 24          	mov    rbx,QWORD PTR [r12]
                        try output(context, fmt[start_index..i]);
  20a4ac:	48 8d 35 75 68 01 00 	lea    rsi,[rip+0x16875]        # 220d28 <__unnamed_36>
  20a4b3:	4c 89 e7             	mov    rdi,r12
  20a4b6:	c5 f8 77             	vzeroupper 
  20a4b9:	ff d3                	call   rbx
  20a4bb:	66 85 c0             	test   ax,ax
  20a4be:	75 35                	jne    20a4f5 <dumpCurrentStackTrace+0x1615>
        stderr.print("Unable to dump stack trace: {}\n", @errorName(err)) catch return;
  20a4c0:	49 0f bf c7          	movsx  rax,r15w
  20a4c4:	48 c1 e0 04          	shl    rax,0x4
  20a4c8:	48 8d 0d 31 3b 01 00 	lea    rcx,[rip+0x13b31]        # 21e000 <raw+0xf68>
                const casted_value = ([]const u8)(value);
  20a4cf:	c5 f8 10 04 08       	vmovups xmm0,XMMWORD PTR [rax+rcx*1]
  20a4d4:	c5 f8 29 44 24 20    	vmovaps XMMWORD PTR [rsp+0x20],xmm0
  20a4da:	48 8d 74 24 20       	lea    rsi,[rsp+0x20]
                return output(context, casted_value);
  20a4df:	4c 89 e7             	mov    rdi,r12
  20a4e2:	ff d3                	call   rbx
                    try formatType(args[next_arg], fmt[0..0], context, Errors, output);
  20a4e4:	66 85 c0             	test   ax,ax
  20a4e7:	75 0c                	jne    20a4f5 <dumpCurrentStackTrace+0x1615>
        try output(context, fmt[start_index..]);
  20a4e9:	48 8d 35 48 68 01 00 	lea    rsi,[rip+0x16848]        # 220d38 <__unnamed_37>
  20a4f0:	4c 89 e7             	mov    rdi,r12
  20a4f3:	ff d3                	call   rbx
    const stderr = getStderrStream() catch return;
  20a4f5:	48 8d 65 d8          	lea    rsp,[rbp-0x28]
  20a4f9:	5b                   	pop    rbx
  20a4fa:	41 5c                	pop    r12
  20a4fc:	41 5d                	pop    r13
  20a4fe:	41 5e                	pop    r14
  20a500:	41 5f                	pop    r15
  20a502:	5d                   	pop    rbp
  20a503:	c5 f8 77             	vzeroupper 
  20a506:	c3                   	ret    
  20a507:	49 89 dc             	mov    r12,rbx
        const bytes = @sliceToBytes(memory);
  20a50a:	48 8b 84 24 98 00 00 	mov    rax,QWORD PTR [rsp+0x98]
  20a511:	00 
        if (bytes.len == 0) return;
  20a512:	48 85 c0             	test   rax,rax
  20a515:	75 2f                	jne    20a546 <dumpCurrentStackTrace+0x1666>
  20a517:	eb 8f                	jmp    20a4a8 <dumpCurrentStackTrace+0x15c8>
  20a519:	4c 8b 64 24 70       	mov    r12,QWORD PTR [rsp+0x70]
        const bytes = @sliceToBytes(memory);
  20a51e:	48 8b 84 24 98 00 00 	mov    rax,QWORD PTR [rsp+0x98]
  20a525:	00 
        if (bytes.len == 0) return;
  20a526:	48 85 c0             	test   rax,rax
  20a529:	75 1b                	jne    20a546 <dumpCurrentStackTrace+0x1666>
  20a52b:	e9 78 ff ff ff       	jmp    20a4a8 <dumpCurrentStackTrace+0x15c8>
  20a530:	4c 8b 64 24 70       	mov    r12,QWORD PTR [rsp+0x70]
        const bytes = @sliceToBytes(memory);
  20a535:	48 8b 84 24 98 00 00 	mov    rax,QWORD PTR [rsp+0x98]
  20a53c:	00 
        if (bytes.len == 0) return;
  20a53d:	48 85 c0             	test   rax,rax
  20a540:	0f 84 62 ff ff ff    	je     20a4a8 <dumpCurrentStackTrace+0x15c8>
  20a546:	48 8b bc 24 a0 00 00 	mov    rdi,QWORD PTR [rsp+0xa0]
  20a54d:	00 
        const bytes = @sliceToBytes(memory);
  20a54e:	48 8b 8c 24 90 00 00 	mov    rcx,QWORD PTR [rsp+0x90]
  20a555:	00 
        self.freeFn(self, non_const_ptr[0..bytes.len]);
  20a556:	48 8b 57 10          	mov    rdx,QWORD PTR [rdi+0x10]
  20a55a:	48 89 4c 24 20       	mov    QWORD PTR [rsp+0x20],rcx
  20a55f:	48 89 44 24 28       	mov    QWORD PTR [rsp+0x28],rax
  20a564:	48 8d 74 24 20       	lea    rsi,[rsp+0x20]
  20a569:	ff d2                	call   rdx
  20a56b:	e9 38 ff ff ff       	jmp    20a4a8 <dumpCurrentStackTrace+0x15c8>
        const bytes = @sliceToBytes(memory);
  20a570:	48 8b 84 24 98 00 00 	mov    rax,QWORD PTR [rsp+0x98]
  20a577:	00 
        if (bytes.len == 0) return;
  20a578:	48 85 c0             	test   rax,rax
  20a57b:	74 25                	je     20a5a2 <dumpCurrentStackTrace+0x16c2>
  20a57d:	48 8b bc 24 a0 00 00 	mov    rdi,QWORD PTR [rsp+0xa0]
  20a584:	00 
        const bytes = @sliceToBytes(memory);
  20a585:	48 8b 8c 24 90 00 00 	mov    rcx,QWORD PTR [rsp+0x90]
  20a58c:	00 
        self.freeFn(self, non_const_ptr[0..bytes.len]);
  20a58d:	48 8b 57 10          	mov    rdx,QWORD PTR [rdi+0x10]
  20a591:	48 89 4c 24 20       	mov    QWORD PTR [rsp+0x20],rcx
  20a596:	48 89 44 24 28       	mov    QWORD PTR [rsp+0x28],rax
  20a59b:	48 8d 74 24 20       	lea    rsi,[rsp+0x20]
  20a5a0:	ff d2                	call   rdx
  20a5a2:	4c 8b 64 24 70       	mov    r12,QWORD PTR [rsp+0x70]
  20a5a7:	e9 fc fe ff ff       	jmp    20a4a8 <dumpCurrentStackTrace+0x15c8>
  20a5ac:	48 c7 c0 fe ff ff ff 	mov    rax,0xfffffffffffffffe
        const this_key = ptr[0..line_i];
        if (!mem.eql(u8, key, this_key)) continue;

        var end_i: usize = line_i;
        while (ptr[end_i] != 0) : (end_i += 1) {}
  20a5b3:	80 7c 06 11 00       	cmp    BYTE PTR [rsi+rax*1+0x11],0x0
  20a5b8:	48 8d 40 01          	lea    rax,[rax+0x1]
  20a5bc:	75 f5                	jne    20a5b3 <dumpCurrentStackTrace+0x16d3>
  20a5be:	c6 44 24 07 01       	mov    BYTE PTR [rsp+0x7],0x1
        const addr = @ptrToInt(self.buffer.ptr) + self.end_index;
        const rem = @rem(addr, alignment);
        const march_forward_bytes = if (rem == 0) 0 else (alignment - rem);
        const adjusted_index = self.end_index + march_forward_bytes;
        const new_end_index = adjusted_index + n;
        if (new_end_index > self.buffer.len) {
  20a5c3:	48 3d 81 00 00 00    	cmp    rax,0x81
        if (n == 0) {
  20a5c9:	0f 83 ce eb ff ff    	jae    20919d <dumpCurrentStackTrace+0x2bd>
  20a5cf:	e9 e9 eb ff ff       	jmp    2091bd <dumpCurrentStackTrace+0x2dd>
  20a5d4:	66 66 66 2e 0f 1f 84 	data16 data16 nop WORD PTR cs:[rax+rax*1+0x0]
  20a5db:	00 00 00 00 00 

000000000020a5e0 <BenchmarkFramework_report>:
            @intToFloat(f64, run_time_ns)/@intToFloat(f64, ns_per_s),
  20a5e0:	41 57                	push   r15
  20a5e2:	41 56                	push   r14
  20a5e4:	53                   	push   rbx
  20a5e5:	48 83 ec 70          	sub    rsp,0x70
  20a5e9:	c4 e1 f9 6e c7       	vmovq  xmm0,rdi
  20a5ee:	c5 f9 6f 0d aa c4 ff 	vmovdqa xmm1,XMMWORD PTR [rip+0xffffffffffffc4aa]        # 206aa0 <__unnamed_606+0x14>
  20a5f5:	ff 
  20a5f6:	c5 f9 62 c1          	vpunpckldq xmm0,xmm0,xmm1
  20a5fa:	c5 f9 28 15 9e c9 ff 	vmovapd xmm2,XMMWORD PTR [rip+0xffffffffffffc99e]        # 206fa0 <__unnamed_573+0x10>
  20a601:	ff 
  20a602:	c5 f9 5c c2          	vsubpd xmm0,xmm0,xmm2
  20a606:	c5 f9 7c c0          	vhaddpd xmm0,xmm0,xmm0
  20a60a:	c5 f9 29 04 24       	vmovapd XMMWORD PTR [rsp],xmm0
  20a60f:	48 89 f3             	mov    rbx,rsi
            @intToFloat(f64, run_time_ns)/@intToFloat(f64, iterations),
  20a612:	c4 e1 f9 6e c3       	vmovq  xmm0,rbx
  20a617:	c5 f9 62 c1          	vpunpckldq xmm0,xmm0,xmm1
  20a61b:	c5 f9 5c c2          	vsubpd xmm0,xmm0,xmm2
  20a61f:	c5 f9 7c c0          	vhaddpd xmm0,xmm0,xmm0
  20a623:	c5 f9 29 44 24 20    	vmovapd XMMWORD PTR [rsp+0x20],xmm0
  20a629:	0f 1f 80 00 00 00 00 	nop    DWORD PTR [rax+0x0]
        while (@atomicRmw(u8, &self.lock, builtin.AtomicRmwOp.Xchg, 1, AtomicOrder.SeqCst) != 0) {}
  20a630:	b0 01                	mov    al,0x1
  20a632:	86 05 d8 69 01 00    	xchg   BYTE PTR [rip+0x169d8],al        # 221010 <stderr_mutex>
  20a638:	84 c0                	test   al,al
  20a63a:	75 f4                	jne    20a630 <BenchmarkFramework_report+0x50>
    if (stderr_stream) |st| {
  20a63c:	4c 8b 3d c5 69 01 00 	mov    r15,QWORD PTR [rip+0x169c5]        # 221008 <stderr_stream>
  20a643:	4d 85 ff             	test   r15,r15
  20a646:	74 09                	je     20a651 <BenchmarkFramework_report+0x71>
  20a648:	4c 8b 35 c1 29 01 00 	mov    r14,QWORD PTR [rip+0x129c1]        # 21d010 <stderr_file_out_stream+0x8>
  20a64f:	eb 34                	jmp    20a685 <BenchmarkFramework_report+0xa5>
        stderr_file = try io.getStdErr();
  20a651:	48 8d 05 a8 29 01 00 	lea    rax,[rip+0x129a8]        # 21d000 <stderr_file>
        stderr_file_out_stream = io.FileOutStream.init(&stderr_file);
  20a658:	48 89 05 a9 29 01 00 	mov    QWORD PTR [rip+0x129a9],rax        # 21d008 <stderr_file_out_stream>
  20a65f:	4c 8d 35 9a 01 00 00 	lea    r14,[rip+0x19a]        # 20a800 <FileOutStream_writeFn>
  20a666:	4c 89 35 a3 29 01 00 	mov    QWORD PTR [rip+0x129a3],r14        # 21d010 <stderr_file_out_stream+0x8>
        stderr_file = try io.getStdErr();
  20a66d:	c7 05 89 29 01 00 02 	mov    DWORD PTR [rip+0x12989],0x2        # 21d000 <stderr_file>
  20a674:	00 00 00 
        stderr_file_out_stream = io.FileOutStream.init(&stderr_file);
  20a677:	4c 8d 3d 92 29 01 00 	lea    r15,[rip+0x12992]        # 21d010 <stderr_file_out_stream+0x8>
        stderr_stream = st;
  20a67e:	4c 89 3d 83 69 01 00 	mov    QWORD PTR [rip+0x16983],r15        # 221008 <stderr_stream>
                        try output(context, fmt[start_index..i]);
  20a685:	48 8d 35 bc 66 01 00 	lea    rsi,[rip+0x166bc]        # 220d48 <__unnamed_38>
  20a68c:	4c 89 ff             	mov    rdi,r15
  20a68f:	41 ff d6             	call   r14
  20a692:	66 85 c0             	test   ax,ax
  20a695:	0f 85 48 01 00 00    	jne    20a7e3 <BenchmarkFramework_report+0x203>
    var buf: [max_int_digits - 1]u8 = undefined;
  20a69b:	c5 fc 10 05 8c c3 ff 	vmovups ymm0,YMMWORD PTR [rip+0xffffffffffffc38c]        # 206a2f <__unnamed_3+0x1f>
  20a6a2:	ff 
  20a6a3:	c5 fc 11 44 24 4f    	vmovups YMMWORD PTR [rsp+0x4f],ymm0
  20a6a9:	c5 fd 10 05 5f c3 ff 	vmovupd ymm0,YMMWORD PTR [rip+0xffffffffffffc35f]        # 206a10 <__unnamed_3>
  20a6b0:	ff 
  20a6b1:	c5 fd 11 44 24 30    	vmovupd YMMWORD PTR [rsp+0x30],ymm0
        const digit = a % base;
  20a6b7:	48 bf cd cc cc cc cc 	movabs rdi,0xcccccccccccccccd
  20a6be:	cc cc cc 
  20a6c1:	48 89 da             	mov    rdx,rbx
  20a6c4:	c4 e2 fb f6 cf       	mulx   rcx,rax,rdi
  20a6c9:	c1 e9 02             	shr    ecx,0x2
  20a6cc:	81 e1 fe ff ff 3f    	and    ecx,0x3ffffffe
  20a6d2:	8d 04 89             	lea    eax,[rcx+rcx*4]
  20a6d5:	89 d9                	mov    ecx,ebx
  20a6d7:	29 c1                	sub    ecx,eax
        0...9 => digit + '0',
  20a6d9:	b2 30                	mov    dl,0x30
  20a6db:	80 f9 0a             	cmp    cl,0xa
  20a6de:	72 02                	jb     20a6e2 <BenchmarkFramework_report+0x102>
  20a6e0:	b2 57                	mov    dl,0x57
  20a6e2:	00 ca                	add    dl,cl
        buf[index] = digitToChar(@intCast(u8, digit), uppercase);
  20a6e4:	88 54 24 6f          	mov    BYTE PTR [rsp+0x6f],dl
        if (a == 0) break;
  20a6e8:	48 83 fb 0a          	cmp    rbx,0xa
  20a6ec:	73 0c                	jae    20a6fa <BenchmarkFramework_report+0x11a>
  20a6ee:	48 8d 44 24 6f       	lea    rax,[rsp+0x6f]
  20a6f3:	b9 40 00 00 00       	mov    ecx,0x40
  20a6f8:	eb 4d                	jmp    20a747 <BenchmarkFramework_report+0x167>
  20a6fa:	b9 40 00 00 00       	mov    ecx,0x40
  20a6ff:	90                   	nop
        a /= base;
  20a700:	48 89 da             	mov    rdx,rbx
  20a703:	c4 e2 fb f6 d7       	mulx   rdx,rax,rdi
  20a708:	48 c1 ea 03          	shr    rdx,0x3
        const digit = a % base;
  20a70c:	c4 e2 fb f6 f7       	mulx   rsi,rax,rdi
  20a711:	c1 ee 02             	shr    esi,0x2
  20a714:	81 e6 fe ff ff 3f    	and    esi,0x3ffffffe
  20a71a:	8d 04 b6             	lea    eax,[rsi+rsi*4]
  20a71d:	89 d6                	mov    esi,edx
  20a71f:	29 c6                	sub    esi,eax
        0...9 => digit + '0',
  20a721:	b0 30                	mov    al,0x30
  20a723:	40 80 fe 0a          	cmp    sil,0xa
  20a727:	72 02                	jb     20a72b <BenchmarkFramework_report+0x14b>
  20a729:	b0 57                	mov    al,0x57
  20a72b:	40 00 f0             	add    al,sil
        buf[index] = digitToChar(@intCast(u8, digit), uppercase);
  20a72e:	88 44 0c 2e          	mov    BYTE PTR [rsp+rcx*1+0x2e],al
        if (a == 0) break;
  20a732:	48 83 c1 ff          	add    rcx,0xffffffffffffffff
  20a736:	48 83 fb 63          	cmp    rbx,0x63
  20a73a:	48 89 d3             	mov    rbx,rdx
  20a73d:	77 c1                	ja     20a700 <BenchmarkFramework_report+0x120>
        const padded_buf = buf[index - padding ..];
  20a73f:	48 8d 04 0c          	lea    rax,[rsp+rcx*1]
  20a743:	48 83 c0 2f          	add    rax,0x2f
  20a747:	ba 41 00 00 00       	mov    edx,0x41
  20a74c:	48 29 ca             	sub    rdx,rcx
  20a74f:	48 89 44 24 10       	mov    QWORD PTR [rsp+0x10],rax
  20a754:	48 89 54 24 18       	mov    QWORD PTR [rsp+0x18],rdx
  20a759:	48 8d 74 24 10       	lea    rsi,[rsp+0x10]
        return output(context, padded_buf);
  20a75e:	4c 89 ff             	mov    rdi,r15
  20a761:	c5 f8 77             	vzeroupper 
  20a764:	41 ff d6             	call   r14
                    try formatType(args[next_arg], fmt[0..0], context, Errors, output);
  20a767:	66 85 c0             	test   ax,ax
  20a76a:	75 77                	jne    20a7e3 <BenchmarkFramework_report+0x203>
                        try output(context, fmt[start_index..i]);
  20a76c:	48 8d 35 e5 65 01 00 	lea    rsi,[rip+0x165e5]        # 220d58 <__unnamed_39>
  20a773:	4c 89 ff             	mov    rdi,r15
  20a776:	41 ff d6             	call   r14
  20a779:	66 85 c0             	test   ax,ax
  20a77c:	75 65                	jne    20a7e3 <BenchmarkFramework_report+0x203>
  20a77e:	c5 f9 28 04 24       	vmovapd xmm0,XMMWORD PTR [rsp]
  20a783:	c5 fb 5e 05 85 5a ff 	vdivsd xmm0,xmm0,QWORD PTR [rip+0xffffffffffff5a85]        # 200210 <__unnamed_90+0x30>
  20a78a:	ff 
        '.' => try formatFloatDecimal(value, width, context, Errors, output),
  20a78b:	48 8d 3d 9e ca ff ff 	lea    rdi,[rip+0xffffffffffffca9e]        # 207230 <__unnamed_40>
  20a792:	4c 89 fe             	mov    rsi,r15
  20a795:	4c 89 f2             	mov    rdx,r14
  20a798:	e8 23 ca 00 00       	call   2171c0 <formatFloatDecimal>
                    try formatType(args[next_arg], fmt[s..i], context, Errors, output);
  20a79d:	66 85 c0             	test   ax,ax
  20a7a0:	75 41                	jne    20a7e3 <BenchmarkFramework_report+0x203>
                        try output(context, fmt[start_index..i]);
  20a7a2:	48 8d 35 bf 65 01 00 	lea    rsi,[rip+0x165bf]        # 220d68 <__unnamed_41>
  20a7a9:	4c 89 ff             	mov    rdi,r15
  20a7ac:	41 ff d6             	call   r14
  20a7af:	66 85 c0             	test   ax,ax
  20a7b2:	75 2f                	jne    20a7e3 <BenchmarkFramework_report+0x203>
  20a7b4:	c5 f9 28 04 24       	vmovapd xmm0,XMMWORD PTR [rsp]
  20a7b9:	c5 fb 5e 44 24 20    	vdivsd xmm0,xmm0,QWORD PTR [rsp+0x20]
        '.' => try formatFloatDecimal(value, width, context, Errors, output),
  20a7bf:	48 8d 3d 6a ca ff ff 	lea    rdi,[rip+0xffffffffffffca6a]        # 207230 <__unnamed_40>
  20a7c6:	4c 89 fe             	mov    rsi,r15
  20a7c9:	4c 89 f2             	mov    rdx,r14
  20a7cc:	e8 ef c9 00 00       	call   2171c0 <formatFloatDecimal>
                    try formatType(args[next_arg], fmt[s..i], context, Errors, output);
  20a7d1:	66 85 c0             	test   ax,ax
  20a7d4:	75 0d                	jne    20a7e3 <BenchmarkFramework_report+0x203>
        try output(context, fmt[start_index..]);
  20a7d6:	48 8d 35 9b 65 01 00 	lea    rsi,[rip+0x1659b]        # 220d78 <__unnamed_42>
  20a7dd:	4c 89 ff             	mov    rdi,r15
  20a7e0:	41 ff d6             	call   r14
            assert(@atomicRmw(u8, &self.mutex.lock, builtin.AtomicRmwOp.Xchg, 0, AtomicOrder.SeqCst) == 1);
  20a7e3:	31 c0                	xor    eax,eax
  20a7e5:	86 05 25 68 01 00    	xchg   BYTE PTR [rip+0x16825],al        # 221010 <stderr_mutex>
  20a7eb:	3c 01                	cmp    al,0x1
    if (!ok) {
  20a7ed:	75 0a                	jne    20a7f9 <BenchmarkFramework_report+0x219>
    fn report(pSelf: *Self, run_time_ns: u64, iterations: u64) void {
  20a7ef:	48 83 c4 70          	add    rsp,0x70
  20a7f3:	5b                   	pop    rbx
  20a7f4:	41 5e                	pop    r14
  20a7f6:	41 5f                	pop    r15
  20a7f8:	c3                   	ret    
            @panic("assertion failure");
  20a7f9:	e8 22 e5 ff ff       	call   208d20 <panic>
  20a7fe:	66 90                	xchg   ax,ax

000000000020a800 <FileOutStream_writeFn>:
    fn writeFn(out_stream: *Stream, bytes: []const u8) !void {
  20a800:	53                   	push   rbx
  20a801:	49 89 f0             	mov    r8,rsi
    while (index < bytes.len) {
  20a804:	49 8b 50 08          	mov    rdx,QWORD PTR [r8+0x8]
  20a808:	48 85 d2             	test   rdx,rdx
  20a80b:	0f 84 98 00 00 00    	je     20a8a9 <FileOutStream_writeFn+0xa9>
        return self.file.write(bytes);
  20a811:	48 8b 47 f8          	mov    rax,QWORD PTR [rdi-0x8]
  20a815:	48 63 38             	movsxd rdi,DWORD PTR [rax]
  20a818:	45 31 c9             	xor    r9d,r9d
  20a81b:	41 ba 00 f0 ff 7f    	mov    r10d,0x7ffff000
  20a821:	48 8d 1d 30 5b ff ff 	lea    rbx,[rip+0xffffffffffff5b30]        # 200358 <app_mask+0xd8>
  20a828:	0f 1f 84 00 00 00 00 	nop    DWORD PTR [rax+rax*1+0x0]
  20a82f:	00 
        const amt_to_write = math.min(bytes.len - index, usize(max_bytes_len));
  20a830:	4c 29 ca             	sub    rdx,r9
    return if (x < y) x else y;
  20a833:	48 81 fa 00 f0 ff 7f 	cmp    rdx,0x7ffff000
  20a83a:	49 0f 43 d2          	cmovae rdx,r10
  20a83e:	49 8b 30             	mov    rsi,QWORD PTR [r8]
        const rc = posix.write(fd, bytes.ptr + index, amt_to_write);
  20a841:	4c 01 ce             	add    rsi,r9
  20a844:	b8 01 00 00 00       	mov    eax,0x1
  20a849:	0f 05                	syscall 
  20a84b:	48 89 c1             	mov    rcx,rax
  20a84e:	48 81 f9 00 f0 ff ff 	cmp    rcx,0xfffffffffffff000
  20a855:	77 39                	ja     20a890 <FileOutStream_writeFn+0x90>
  20a857:	31 d2                	xor    edx,edx
        if (write_err > 0) {
  20a859:	48 83 fa 04          	cmp    rdx,0x4
  20a85d:	74 3d                	je     20a89c <FileOutStream_writeFn+0x9c>
  20a85f:	48 83 fa 59          	cmp    rdx,0x59
  20a863:	77 48                	ja     20a8ad <FileOutStream_writeFn+0xad>
  20a865:	66 b8 07 00          	mov    ax,0x7
  20a869:	48 63 14 93          	movsxd rdx,DWORD PTR [rbx+rdx*4]
  20a86d:	48 01 da             	add    rdx,rbx
  20a870:	ff e2                	jmp    rdx
        index += rc;
  20a872:	49 01 c9             	add    r9,rcx
    while (index < bytes.len) {
  20a875:	49 8b 50 08          	mov    rdx,QWORD PTR [r8+0x8]
  20a879:	31 c0                	xor    eax,eax
  20a87b:	4c 39 ca             	cmp    rdx,r9
  20a87e:	77 b0                	ja     20a830 <FileOutStream_writeFn+0x30>
  20a880:	eb 25                	jmp    20a8a7 <FileOutStream_writeFn+0xa7>
  20a882:	66 66 66 66 66 2e 0f 	data16 data16 data16 data16 nop WORD PTR cs:[rax+rax*1+0x0]
  20a889:	1f 84 00 00 00 00 00 
  20a890:	48 89 ca             	mov    rdx,rcx
  20a893:	48 f7 da             	neg    rdx
        if (write_err > 0) {
  20a896:	48 83 fa 04          	cmp    rdx,0x4
  20a89a:	75 c3                	jne    20a85f <FileOutStream_writeFn+0x5f>
    while (index < bytes.len) {
  20a89c:	49 8b 50 08          	mov    rdx,QWORD PTR [r8+0x8]
  20a8a0:	4c 39 ca             	cmp    rdx,r9
  20a8a3:	77 8b                	ja     20a830 <FileOutStream_writeFn+0x30>
  20a8a5:	31 c0                	xor    eax,eax
  20a8a7:	5b                   	pop    rbx
  20a8a8:	c3                   	ret    
  20a8a9:	31 c0                	xor    eax,eax
  20a8ab:	5b                   	pop    rbx
  20a8ac:	c3                   	ret    
        if (write_err > 0) {
  20a8ad:	48 83 fa 7a          	cmp    rdx,0x7a
  20a8b1:	75 06                	jne    20a8b9 <FileOutStream_writeFn+0xb9>
  20a8b3:	66 b8 0a 00          	mov    ax,0xa
  20a8b7:	5b                   	pop    rbx
  20a8b8:	c3                   	ret    
  20a8b9:	66 b8 02 00          	mov    ax,0x2
  20a8bd:	5b                   	pop    rbx
  20a8be:	c3                   	ret    
  20a8bf:	66 b8 0e 00          	mov    ax,0xe
  20a8c3:	5b                   	pop    rbx
  20a8c4:	c3                   	ret    
  20a8c5:	66 b8 0c 00          	mov    ax,0xc
  20a8c9:	5b                   	pop    rbx
  20a8ca:	c3                   	ret    
  20a8cb:	66 b8 08 00          	mov    ax,0x8
  20a8cf:	5b                   	pop    rbx
  20a8d0:	c3                   	ret    
  20a8d1:	66 b8 0b 00          	mov    ax,0xb
  20a8d5:	5b                   	pop    rbx
  20a8d6:	c3                   	ret    
  20a8d7:	66 b8 0d 00          	mov    ax,0xd
  20a8db:	5b                   	pop    rbx
  20a8dc:	c3                   	ret    
  20a8dd:	66 b8 06 00          	mov    ax,0x6
  20a8e1:	5b                   	pop    rbx
  20a8e2:	c3                   	ret    
  20a8e3:	66 b8 09 00          	mov    ax,0x9
  20a8e7:	5b                   	pop    rbx
  20a8e8:	c3                   	ret    
  20a8e9:	0f 1f 80 00 00 00 00 	nop    DWORD PTR [rax+0x0]

000000000020a8f0 <openSelfDebugInfo>:
            return Self{
  20a8f0:	55                   	push   rbp
  20a8f1:	41 57                	push   r15
  20a8f3:	41 56                	push   r14
  20a8f5:	41 55                	push   r13
  20a8f7:	41 54                	push   r12
  20a8f9:	53                   	push   rbx
  20a8fa:	48 81 ec e8 05 00 00 	sub    rsp,0x5e8
  20a901:	c5 f8 57 c0          	vxorps xmm0,xmm0,xmm0
  20a905:	c5 f8 29 84 24 30 04 	vmovaps XMMWORD PTR [rsp+0x430],xmm0
  20a90c:	00 00 
  20a90e:	c5 f8 29 84 24 10 04 	vmovaps XMMWORD PTR [rsp+0x410],xmm0
  20a915:	00 00 
  20a917:	49 89 f4             	mov    r12,rsi
  20a91a:	49 89 fe             	mov    r14,rdi
            const st = try allocator.create(ElfStackTrace{
  20a91d:	c5 fc 10 05 fb aa ff 	vmovups ymm0,YMMWORD PTR [rip+0xffffffffffffaafb]        # 205420 <__unnamed_43>
  20a924:	ff 
  20a925:	c5 fc 11 84 24 70 05 	vmovups YMMWORD PTR [rsp+0x570],ymm0
  20a92c:	00 00 
  20a92e:	48 c7 84 24 40 04 00 	mov    QWORD PTR [rsp+0x440],0x0
  20a935:	00 00 00 00 00 
  20a93a:	c5 fc 10 05 fe aa ff 	vmovups ymm0,YMMWORD PTR [rip+0xffffffffffffaafe]        # 205440 <__unnamed_43+0x20>
  20a941:	ff 
  20a942:	c5 fc 11 84 24 90 05 	vmovups YMMWORD PTR [rsp+0x590],ymm0
  20a949:	00 00 
  20a94b:	48 c7 84 24 20 04 00 	mov    QWORD PTR [rsp+0x420],0x0
  20a952:	00 00 00 00 00 
  20a957:	c5 fe 6f 05 f9 aa ff 	vmovdqu ymm0,YMMWORD PTR [rip+0xffffffffffffaaf9]        # 205458 <__unnamed_43+0x38>
  20a95e:	ff 
  20a95f:	c5 fe 7f 84 24 a8 05 	vmovdqu YMMWORD PTR [rsp+0x5a8],ymm0
  20a966:	00 00 
  20a968:	48 8d bc 24 f0 00 00 	lea    rdi,[rsp+0xf0]
  20a96f:	00 
        const byte_slice = try self.allocFn(self, byte_count, alignment);
  20a970:	ba c8 00 00 00       	mov    edx,0xc8
  20a975:	b9 04 00 00 00       	mov    ecx,0x4
  20a97a:	c5 f8 77             	vzeroupper 
  20a97d:	41 ff 14 24          	call   QWORD PTR [r12]
  20a981:	0f b7 84 24 f0 00 00 	movzx  eax,WORD PTR [rsp+0xf0]
  20a988:	00 
  20a989:	66 85 c0             	test   ax,ax
  20a98c:	74 19                	je     20a9a7 <openSelfDebugInfo+0xb7>
  20a98e:	66 41 89 06          	mov    WORD PTR [r14],ax
  20a992:	48 8b 84 24 12 05 00 	mov    rax,QWORD PTR [rsp+0x512]
  20a999:	00 
  20a99a:	48 8b 8c 24 18 05 00 	mov    rcx,QWORD PTR [rsp+0x518]
  20a9a1:	00 
  20a9a2:	e9 60 0c 00 00       	jmp    20b607 <openSelfDebugInfo+0xd17>
        assert(byte_slice.len == byte_count);
  20a9a7:	48 81 bc 24 00 01 00 	cmp    QWORD PTR [rsp+0x100],0xc8
  20a9ae:	00 c8 00 00 00 
    if (!ok) {
  20a9b3:	0f 85 9b 3f 00 00    	jne    20e954 <openSelfDebugInfo+0x4064>
  20a9b9:	48 8b ac 24 f8 00 00 	mov    rbp,QWORD PTR [rsp+0xf8]
  20a9c0:	00 
        ptr.* = init;
  20a9c1:	c5 fc 10 84 24 68 05 	vmovups ymm0,YMMWORD PTR [rsp+0x568]
  20a9c8:	00 00 
  20a9ca:	c5 fe 6f 8c 24 88 05 	vmovdqu ymm1,YMMWORD PTR [rsp+0x588]
  20a9d1:	00 00 
  20a9d3:	c5 fe 6f 94 24 a8 05 	vmovdqu ymm2,YMMWORD PTR [rsp+0x5a8]
  20a9da:	00 00 
  20a9dc:	c5 fe 6f 9c 24 c8 05 	vmovdqu ymm3,YMMWORD PTR [rsp+0x5c8]
  20a9e3:	00 00 
  20a9e5:	c5 fe 7f 5d 60       	vmovdqu YMMWORD PTR [rbp+0x60],ymm3
  20a9ea:	c5 fe 7f 55 40       	vmovdqu YMMWORD PTR [rbp+0x40],ymm2
  20a9ef:	c5 fe 7f 4d 20       	vmovdqu YMMWORD PTR [rbp+0x20],ymm1
  20a9f4:	c5 fc 11 45 00       	vmovups YMMWORD PTR [rbp+0x0],ymm0
  20a9f9:	48 c7 85 80 00 00 00 	mov    QWORD PTR [rbp+0x80],0x0
  20aa00:	00 00 00 00 
  20aa04:	48 8b 84 24 40 04 00 	mov    rax,QWORD PTR [rsp+0x440]
  20aa0b:	00 
  20aa0c:	48 89 85 98 00 00 00 	mov    QWORD PTR [rbp+0x98],rax
  20aa13:	c5 f8 28 84 24 30 04 	vmovaps xmm0,XMMWORD PTR [rsp+0x430]
  20aa1a:	00 00 
  20aa1c:	c5 f8 11 85 88 00 00 	vmovups XMMWORD PTR [rbp+0x88],xmm0
  20aa23:	00 
  20aa24:	4c 89 a5 a0 00 00 00 	mov    QWORD PTR [rbp+0xa0],r12
  20aa2b:	48 8b 84 24 20 04 00 	mov    rax,QWORD PTR [rsp+0x420]
  20aa32:	00 
  20aa33:	48 89 85 b8 00 00 00 	mov    QWORD PTR [rbp+0xb8],rax
  20aa3a:	c5 f9 6f 84 24 10 04 	vmovdqa xmm0,XMMWORD PTR [rsp+0x410]
  20aa41:	00 00 
  20aa43:	c5 fa 7f 85 a8 00 00 	vmovdqu XMMWORD PTR [rbp+0xa8],xmm0
  20aa4a:	00 
  20aa4b:	4c 89 a5 c0 00 00 00 	mov    QWORD PTR [rbp+0xc0],r12
    return error.Unexpected;
}

pub fn openSelfExe() !os.File {
    switch (builtin.os) {
        Os.linux => return os.File.openReadC(c"/proc/self/exe"),
  20aa52:	48 8d 35 57 ca ff ff 	lea    rsi,[rip+0xffffffffffffca57]        # 2074b0 <__unnamed_44>
  20aa59:	48 8d bc 24 f0 00 00 	lea    rdi,[rsp+0xf0]
  20aa60:	00 
  20aa61:	c5 f8 77             	vzeroupper 
  20aa64:	e8 57 4d 00 00       	call   20f7c0 <File_openReadC>
  20aa69:	48 8b 9c 24 f0 00 00 	mov    rbx,QWORD PTR [rsp+0xf0]
  20aa70:	00 
            st.self_exe_file = try os.openSelfExe();
  20aa71:	66 85 db             	test   bx,bx
  20aa74:	74 3f                	je     20aab5 <openSelfDebugInfo+0x1c5>
        self.freeFn(self, non_const_ptr[0..@sizeOf(@typeOf(ptr).Child)]);
  20aa76:	49 8b 44 24 10       	mov    rax,QWORD PTR [r12+0x10]
  20aa7b:	48 89 ac 24 f0 00 00 	mov    QWORD PTR [rsp+0xf0],rbp
  20aa82:	00 
  20aa83:	48 c7 84 24 f8 00 00 	mov    QWORD PTR [rsp+0xf8],0xc8
  20aa8a:	00 c8 00 00 00 
  20aa8f:	48 8d b4 24 f0 00 00 	lea    rsi,[rsp+0xf0]
  20aa96:	00 
  20aa97:	4c 89 e7             	mov    rdi,r12
  20aa9a:	ff d0                	call   rax
  20aa9c:	66 41 89 1e          	mov    WORD PTR [r14],bx
  20aaa0:	48 8b 84 24 04 05 00 	mov    rax,QWORD PTR [rsp+0x504]
  20aaa7:	00 
  20aaa8:	48 8b 8c 24 0a 05 00 	mov    rcx,QWORD PTR [rsp+0x50a]
  20aaaf:	00 
  20aab0:	e9 52 0b 00 00       	jmp    20b607 <openSelfDebugInfo+0xd17>
  20aab5:	48 c1 eb 20          	shr    rbx,0x20
  20aab9:	89 5d 00             	mov    DWORD PTR [rbp+0x0],ebx
            try st.elf.openFile(allocator, &st.self_exe_file);
  20aabc:	4c 8d 7d 08          	lea    r15,[rbp+0x8]
        elf.auto_close_stream = true;
    }

    /// Call close when done.
    pub fn openFile(elf: *Elf, allocator: *mem.Allocator, file: *os.File) !void {
        elf.allocator = allocator;
  20aac0:	4c 89 65 50          	mov    QWORD PTR [rbp+0x50],r12
        elf.in_file = file;
  20aac4:	48 89 6d 08          	mov    QWORD PTR [rbp+0x8],rbp
        elf.auto_close_stream = false;
  20aac8:	c6 45 10 00          	mov    BYTE PTR [rbp+0x10],0x0

        var file_stream = io.FileInStream.init(elf.in_file);
  20aacc:	48 89 6c 24 50       	mov    QWORD PTR [rsp+0x50],rbp
  20aad1:	48 8d 05 18 50 00 00 	lea    rax,[rip+0x5018]        # 20faf0 <FileInStream_readFn>
  20aad8:	48 89 44 24 58       	mov    QWORD PTR [rsp+0x58],rax
  20aadd:	48 8d 84 24 70 02 00 	lea    rax,[rsp+0x270]
  20aae4:	00 
        const in = &file_stream.stream;

        var magic: [4]u8 = undefined;
        try in.readNoEof(magic[0..]);
  20aae5:	48 89 84 24 d8 03 00 	mov    QWORD PTR [rsp+0x3d8],rax
  20aaec:	00 
  20aaed:	48 c7 84 24 e0 03 00 	mov    QWORD PTR [rsp+0x3e0],0x4
  20aaf4:	00 04 00 00 00 
        return self.file.read(buffer);
  20aaf9:	48 8b 74 24 50       	mov    rsi,QWORD PTR [rsp+0x50]
  20aafe:	48 8d 9c 24 f0 00 00 	lea    rbx,[rsp+0xf0]
  20ab05:	00 
  20ab06:	48 8d 94 24 d8 03 00 	lea    rdx,[rsp+0x3d8]
  20ab0d:	00 
  20ab0e:	48 89 df             	mov    rdi,rbx
  20ab11:	e8 aa 4e 00 00       	call   20f9c0 <File_read>
  20ab16:	44 0f b7 ac 24 f0 00 	movzx  r13d,WORD PTR [rsp+0xf0]
  20ab1d:	00 00 
            const amt_read = try self.read(buf);
  20ab1f:	66 45 85 ed          	test   r13w,r13w
  20ab23:	75 17                	jne    20ab3c <openSelfDebugInfo+0x24c>
  20ab25:	48 8b 84 24 f8 00 00 	mov    rax,QWORD PTR [rsp+0xf8]
  20ab2c:	00 
  20ab2d:	66 41 bd 1e 00       	mov    r13w,0x1e
            if (amt_read < buf.len) return error.EndOfStream;
  20ab32:	48 3b 84 24 e0 03 00 	cmp    rax,QWORD PTR [rsp+0x3e0]
  20ab39:	00 
  20ab3a:	73 4e                	jae    20ab8a <openSelfDebugInfo+0x29a>
  20ab3c:	66 45 85 ed          	test   r13w,r13w
  20ab40:	0f 84 ec 06 00 00    	je     20b232 <openSelfDebugInfo+0x942>
  20ab46:	48 63 7d 00          	movsxd rdi,DWORD PTR [rbp+0x0]
  20ab4a:	66 0f 1f 44 00 00    	nop    WORD PTR [rax+rax*1+0x0]
    return asm volatile ("syscall"
  20ab50:	b8 03 00 00 00       	mov    eax,0x3
  20ab55:	0f 05                	syscall 
            switch (err) {
  20ab57:	48 83 f8 fc          	cmp    rax,0xfffffffffffffffc
  20ab5b:	74 f3                	je     20ab50 <openSelfDebugInfo+0x260>
        /// Remove and return the first node in the list.
        ///
        /// Returns:
        ///     A pointer to the first node in the list.
        pub fn popFirst(list: *Self) ?*Node {
            const first = list.first orelse return null;
  20ab5d:	48 8b 05 c4 64 01 00 	mov    rax,QWORD PTR [rip+0x164c4]        # 221028 <emfile_promise_queue>
  20ab64:	48 85 c0             	test   rax,rax
  20ab67:	0f 84 3b 01 00 00    	je     20aca8 <openSelfDebugInfo+0x3b8>
            if (node.prev) |prev_node| {
  20ab6d:	48 8b 08             	mov    rcx,QWORD PTR [rax]
  20ab70:	48 85 c9             	test   rcx,rcx
  20ab73:	0f 84 c4 00 00 00    	je     20ac3d <openSelfDebugInfo+0x34d>
                prev_node.next = node.next;
  20ab79:	48 8b 50 08          	mov    rdx,QWORD PTR [rax+0x8]
  20ab7d:	48 89 51 08          	mov    QWORD PTR [rcx+0x8],rdx
            if (node.next) |next_node| {
  20ab81:	48 8b 48 08          	mov    rcx,QWORD PTR [rax+0x8]
  20ab85:	e9 be 00 00 00       	jmp    20ac48 <openSelfDebugInfo+0x358>
        if (b[index] != item) return false;
  20ab8a:	80 bc 24 70 02 00 00 	cmp    BYTE PTR [rsp+0x270],0x7f
  20ab91:	7f 
  20ab92:	0f 85 8b 06 00 00    	jne    20b223 <openSelfDebugInfo+0x933>
  20ab98:	80 bc 24 71 02 00 00 	cmp    BYTE PTR [rsp+0x271],0x45
  20ab9f:	45 
  20aba0:	0f 85 7d 06 00 00    	jne    20b223 <openSelfDebugInfo+0x933>
  20aba6:	80 bc 24 72 02 00 00 	cmp    BYTE PTR [rsp+0x272],0x4c
  20abad:	4c 
  20abae:	0f 85 6f 06 00 00    	jne    20b223 <openSelfDebugInfo+0x933>
  20abb4:	80 bc 24 73 02 00 00 	cmp    BYTE PTR [rsp+0x273],0x46
  20abbb:	46 
  20abbc:	0f 85 28 01 00 00    	jne    20acea <openSelfDebugInfo+0x3fa>
  20abc2:	48 8d 74 24 58       	lea    rsi,[rsp+0x58]
  20abc7:	48 8d 44 24 1f       	lea    rax,[rsp+0x1f]
            try self.readNoEof(result[0..]);
  20abcc:	48 89 84 24 98 00 00 	mov    QWORD PTR [rsp+0x98],rax
  20abd3:	00 
  20abd4:	48 c7 84 24 a0 00 00 	mov    QWORD PTR [rsp+0xa0],0x1
  20abdb:	00 01 00 00 00 
  20abe0:	48 8d bc 24 f0 00 00 	lea    rdi,[rsp+0xf0]
  20abe7:	00 
  20abe8:	48 8d 94 24 98 00 00 	lea    rdx,[rsp+0x98]
  20abef:	00 
            return self.readFn(self, buffer);
  20abf0:	ff 54 24 58          	call   QWORD PTR [rsp+0x58]
  20abf4:	44 0f b7 ac 24 f0 00 	movzx  r13d,WORD PTR [rsp+0xf0]
  20abfb:	00 00 
            const amt_read = try self.read(buf);
  20abfd:	66 45 85 ed          	test   r13w,r13w
  20ac01:	0f 85 35 ff ff ff    	jne    20ab3c <openSelfDebugInfo+0x24c>
  20ac07:	48 8b 84 24 f8 00 00 	mov    rax,QWORD PTR [rsp+0xf8]
  20ac0e:	00 
  20ac0f:	66 41 bd 1e 00       	mov    r13w,0x1e
            if (amt_read < buf.len) return error.EndOfStream;
  20ac14:	48 3b 84 24 a0 00 00 	cmp    rax,QWORD PTR [rsp+0xa0]
  20ac1b:	00 
  20ac1c:	0f 82 1a ff ff ff    	jb     20ab3c <openSelfDebugInfo+0x24c>
            return result[0];
  20ac22:	8a 44 24 1f          	mov    al,BYTE PTR [rsp+0x1f]
        if (!mem.eql(u8, magic, "\x7fELF")) return error.InvalidFormat;

        elf.is_64 = switch (try in.readByte()) {
  20ac26:	3c 01                	cmp    al,0x1
  20ac28:	0f 84 d0 00 00 00    	je     20acfe <openSelfDebugInfo+0x40e>
  20ac2e:	3c 02                	cmp    al,0x2
  20ac30:	0f 85 ed 05 00 00    	jne    20b223 <openSelfDebugInfo+0x933>
  20ac36:	b0 01                	mov    al,0x1
  20ac38:	e9 c3 00 00 00       	jmp    20ad00 <openSelfDebugInfo+0x410>
                list.first = node.next;
  20ac3d:	48 8b 48 08          	mov    rcx,QWORD PTR [rax+0x8]
  20ac41:	48 89 0d e0 63 01 00 	mov    QWORD PTR [rip+0x163e0],rcx        # 221028 <emfile_promise_queue>
            if (node.next) |next_node| {
  20ac48:	48 85 c9             	test   rcx,rcx
  20ac4b:	48 8b 10             	mov    rdx,QWORD PTR [rax]
  20ac4e:	48 8d 35 db 63 01 00 	lea    rsi,[rip+0x163db]        # 221030 <emfile_promise_queue+0x8>
  20ac55:	48 0f 45 f1          	cmovne rsi,rcx
  20ac59:	48 89 16             	mov    QWORD PTR [rsi],rdx
            list.len -= 1;
  20ac5c:	48 83 05 d4 63 01 00 	add    QWORD PTR [rip+0x163d4],0xffffffffffffffff        # 221038 <emfile_promise_queue+0x10>
  20ac63:	ff 
            assert(list.len == 0 or (list.first != null and list.last != null));
  20ac64:	74 1e                	je     20ac84 <openSelfDebugInfo+0x394>
  20ac66:	48 83 3d ba 63 01 00 	cmp    QWORD PTR [rip+0x163ba],0x0        # 221028 <emfile_promise_queue>
  20ac6d:	00 
  20ac6e:	0f 84 e0 3c 00 00    	je     20e954 <openSelfDebugInfo+0x4064>
  20ac74:	48 8b 0d b5 63 01 00 	mov    rcx,QWORD PTR [rip+0x163b5]        # 221030 <emfile_promise_queue+0x8>
  20ac7b:	48 85 c9             	test   rcx,rcx
  20ac7e:	0f 84 d0 3c 00 00    	je     20e954 <openSelfDebugInfo+0x4064>
                    if (emfile_promise_queue.popFirst()) |p| resume p.data;
  20ac84:	48 8b 78 10          	mov    rdi,QWORD PTR [rax+0x10]
  20ac88:	48 8b 47 10          	mov    rax,QWORD PTR [rdi+0x10]
  20ac8c:	0f 1f 40 00          	nop    DWORD PTR [rax+0x0]
  20ac90:	48 89 c1             	mov    rcx,rax
  20ac93:	48 83 e1 fd          	and    rcx,0xfffffffffffffffd
  20ac97:	f0 48 0f b1 4f 10    	lock cmpxchg QWORD PTR [rdi+0x10],rcx
  20ac9d:	75 f1                	jne    20ac90 <openSelfDebugInfo+0x3a0>
  20ac9f:	a8 01                	test   al,0x1
  20aca1:	75 05                	jne    20aca8 <openSelfDebugInfo+0x3b8>
  20aca3:	c5 f8 77             	vzeroupper 
  20aca6:	ff 17                	call   QWORD PTR [rdi]
        self.freeFn(self, non_const_ptr[0..@sizeOf(@typeOf(ptr).Child)]);
  20aca8:	49 8b 44 24 10       	mov    rax,QWORD PTR [r12+0x10]
  20acad:	48 89 ac 24 f0 00 00 	mov    QWORD PTR [rsp+0xf0],rbp
  20acb4:	00 
  20acb5:	48 c7 84 24 f8 00 00 	mov    QWORD PTR [rsp+0xf8],0xc8
  20acbc:	00 c8 00 00 00 
  20acc1:	48 8d b4 24 f0 00 00 	lea    rsi,[rsp+0xf0]
  20acc8:	00 
  20acc9:	4c 89 e7             	mov    rdi,r12
  20accc:	c5 f8 77             	vzeroupper 
  20accf:	ff d0                	call   rax
  20acd1:	66 45 89 2e          	mov    WORD PTR [r14],r13w
  20acd5:	48 8b 84 24 f6 04 00 	mov    rax,QWORD PTR [rsp+0x4f6]
  20acdc:	00 
  20acdd:	48 8b 8c 24 fc 04 00 	mov    rcx,QWORD PTR [rsp+0x4fc]
  20ace4:	00 
  20ace5:	e9 1d 09 00 00       	jmp    20b607 <openSelfDebugInfo+0xd17>
  20acea:	66 41 bd 1f 00       	mov    r13w,0x1f
  20acef:	66 45 85 ed          	test   r13w,r13w
  20acf3:	0f 85 4d fe ff ff    	jne    20ab46 <openSelfDebugInfo+0x256>
  20acf9:	e9 34 05 00 00       	jmp    20b232 <openSelfDebugInfo+0x942>
  20acfe:	31 c0                	xor    eax,eax
  20ad00:	88 45 11             	mov    BYTE PTR [rbp+0x11],al
            try self.readNoEof(result[0..]);
  20ad03:	48 8d 44 24 1f       	lea    rax,[rsp+0x1f]
  20ad08:	48 89 84 24 98 00 00 	mov    QWORD PTR [rsp+0x98],rax
  20ad0f:	00 
  20ad10:	48 c7 84 24 a0 00 00 	mov    QWORD PTR [rsp+0xa0],0x1
  20ad17:	00 01 00 00 00 
  20ad1c:	48 8d bc 24 f0 00 00 	lea    rdi,[rsp+0xf0]
  20ad23:	00 
  20ad24:	48 8d 94 24 98 00 00 	lea    rdx,[rsp+0x98]
  20ad2b:	00 
            return self.readFn(self, buffer);
  20ad2c:	48 8d 74 24 58       	lea    rsi,[rsp+0x58]
  20ad31:	ff 54 24 58          	call   QWORD PTR [rsp+0x58]
  20ad35:	44 0f b7 ac 24 f0 00 	movzx  r13d,WORD PTR [rsp+0xf0]
  20ad3c:	00 00 
            const amt_read = try self.read(buf);
  20ad3e:	66 45 85 ed          	test   r13w,r13w
  20ad42:	0f 85 f4 fd ff ff    	jne    20ab3c <openSelfDebugInfo+0x24c>
  20ad48:	48 8b 84 24 f8 00 00 	mov    rax,QWORD PTR [rsp+0xf8]
  20ad4f:	00 
  20ad50:	66 41 bd 1e 00       	mov    r13w,0x1e
            if (amt_read < buf.len) return error.EndOfStream;
  20ad55:	48 3b 84 24 a0 00 00 	cmp    rax,QWORD PTR [rsp+0xa0]
  20ad5c:	00 
  20ad5d:	0f 82 d9 fd ff ff    	jb     20ab3c <openSelfDebugInfo+0x24c>
            return result[0];
  20ad63:	8a 44 24 1f          	mov    al,BYTE PTR [rsp+0x1f]
            1 => false,
            2 => true,
            else => return error.InvalidFormat,
        };

        elf.endian = switch (try in.readByte()) {
  20ad67:	3c 01                	cmp    al,0x1
  20ad69:	74 0c                	je     20ad77 <openSelfDebugInfo+0x487>
  20ad6b:	3c 02                	cmp    al,0x2
  20ad6d:	0f 85 b0 04 00 00    	jne    20b223 <openSelfDebugInfo+0x933>
  20ad73:	31 c0                	xor    eax,eax
  20ad75:	eb 02                	jmp    20ad79 <openSelfDebugInfo+0x489>
  20ad77:	b0 01                	mov    al,0x1
  20ad79:	48 8d 4d 12          	lea    rcx,[rbp+0x12]
  20ad7d:	48 89 4c 24 68       	mov    QWORD PTR [rsp+0x68],rcx
  20ad82:	88 01                	mov    BYTE PTR [rcx],al
            try self.readNoEof(result[0..]);
  20ad84:	48 8d 44 24 1f       	lea    rax,[rsp+0x1f]
  20ad89:	48 89 84 24 98 00 00 	mov    QWORD PTR [rsp+0x98],rax
  20ad90:	00 
  20ad91:	48 c7 84 24 a0 00 00 	mov    QWORD PTR [rsp+0xa0],0x1
  20ad98:	00 01 00 00 00 
  20ad9d:	48 8d bc 24 f0 00 00 	lea    rdi,[rsp+0xf0]
  20ada4:	00 
  20ada5:	48 8d 94 24 98 00 00 	lea    rdx,[rsp+0x98]
  20adac:	00 
            return self.readFn(self, buffer);
  20adad:	48 8d 74 24 58       	lea    rsi,[rsp+0x58]
  20adb2:	ff 54 24 58          	call   QWORD PTR [rsp+0x58]
  20adb6:	44 0f b7 ac 24 f0 00 	movzx  r13d,WORD PTR [rsp+0xf0]
  20adbd:	00 00 
            const amt_read = try self.read(buf);
  20adbf:	66 45 85 ed          	test   r13w,r13w
  20adc3:	0f 85 73 fd ff ff    	jne    20ab3c <openSelfDebugInfo+0x24c>
  20adc9:	48 8b 84 24 f8 00 00 	mov    rax,QWORD PTR [rsp+0xf8]
  20add0:	00 
  20add1:	66 41 bd 1e 00       	mov    r13w,0x1e
            if (amt_read < buf.len) return error.EndOfStream;
  20add6:	48 3b 84 24 a0 00 00 	cmp    rax,QWORD PTR [rsp+0xa0]
  20addd:	00 
  20adde:	0f 82 58 fd ff ff    	jb     20ab3c <openSelfDebugInfo+0x24c>
            2 => builtin.Endian.Big,
            else => return error.InvalidFormat,
        };

        const version_byte = try in.readByte();
        if (version_byte != 1) return error.InvalidFormat;
  20ade4:	80 7c 24 1f 01       	cmp    BYTE PTR [rsp+0x1f],0x1
  20ade9:	0f 85 34 04 00 00    	jne    20b223 <openSelfDebugInfo+0x933>

        // skip over padding
        try elf.in_file.seekForward(9);
  20adef:	49 8b 07             	mov    rax,QWORD PTR [r15]
    return syscall3(SYS_lseek, @intCast(usize, fd), @bitCast(usize, offset), ref_pos);
  20adf2:	48 63 38             	movsxd rdi,DWORD PTR [rax]
    return asm volatile ("syscall"
  20adf5:	b8 08 00 00 00       	mov    eax,0x8
  20adfa:	be 09 00 00 00       	mov    esi,0x9
  20adff:	ba 01 00 00 00       	mov    edx,0x1
  20ae04:	0f 05                	syscall 
    return if (signed_r > -4096 and signed_r < 0) @intCast(usize, -signed_r) else 0;
  20ae06:	48 89 c2             	mov    rdx,rax
  20ae09:	48 f7 da             	neg    rdx
  20ae0c:	31 c9                	xor    ecx,ecx
  20ae0e:	48 3d 00 f0 ff ff    	cmp    rax,0xfffffffffffff000
  20ae14:	48 0f 47 ca          	cmova  rcx,rdx
                if (err > 0) {
  20ae18:	48 83 f9 1d          	cmp    rcx,0x1d
  20ae1c:	0f 87 1e 3b 00 00    	ja     20e940 <openSelfDebugInfo+0x4050>
  20ae22:	48 8d 05 97 56 ff ff 	lea    rax,[rip+0xffffffffffff5697]        # 2004c0 <app_mask+0x240>
  20ae29:	48 63 0c 88          	movsxd rcx,DWORD PTR [rax+rcx*4]
  20ae2d:	48 01 c1             	add    rcx,rax
  20ae30:	66 41 bd 02 00       	mov    r13w,0x2
  20ae35:	ff e1                	jmp    rcx
  20ae37:	66 41 bd 20 00       	mov    r13w,0x20
  20ae3c:	66 45 85 ed          	test   r13w,r13w
  20ae40:	0f 85 00 fd ff ff    	jne    20ab46 <openSelfDebugInfo+0x256>
  20ae46:	e9 e7 03 00 00       	jmp    20b232 <openSelfDebugInfo+0x942>

        elf.file_type = switch (try in.readInt(elf.endian, u16)) {
  20ae4b:	8a 45 12             	mov    al,BYTE PTR [rbp+0x12]
  20ae4e:	88 44 24 40          	mov    BYTE PTR [rsp+0x40],al
  20ae52:	48 8d 44 24 20       	lea    rax,[rsp+0x20]
            try self.readNoEof(bytes[0..]);
  20ae57:	48 89 84 24 98 00 00 	mov    QWORD PTR [rsp+0x98],rax
  20ae5e:	00 
  20ae5f:	48 c7 84 24 a0 00 00 	mov    QWORD PTR [rsp+0xa0],0x2
  20ae66:	00 02 00 00 00 
  20ae6b:	48 8d bc 24 f0 00 00 	lea    rdi,[rsp+0xf0]
  20ae72:	00 
  20ae73:	48 8d 94 24 98 00 00 	lea    rdx,[rsp+0x98]
  20ae7a:	00 
            return self.readFn(self, buffer);
  20ae7b:	48 8d 74 24 58       	lea    rsi,[rsp+0x58]
  20ae80:	ff 54 24 58          	call   QWORD PTR [rsp+0x58]
  20ae84:	44 0f b7 ac 24 f0 00 	movzx  r13d,WORD PTR [rsp+0xf0]
  20ae8b:	00 00 
            const amt_read = try self.read(buf);
  20ae8d:	66 45 85 ed          	test   r13w,r13w
  20ae91:	0f 85 a5 fc ff ff    	jne    20ab3c <openSelfDebugInfo+0x24c>
  20ae97:	48 8b 84 24 f8 00 00 	mov    rax,QWORD PTR [rsp+0xf8]
  20ae9e:	00 
  20ae9f:	66 41 bd 1e 00       	mov    r13w,0x1e
            if (amt_read < buf.len) return error.EndOfStream;
  20aea4:	48 3b 84 24 a0 00 00 	cmp    rax,QWORD PTR [rsp+0xa0]
  20aeab:	00 
  20aeac:	0f 82 8a fc ff ff    	jb     20ab3c <openSelfDebugInfo+0x24c>
  20aeb2:	0f b6 44 24 20       	movzx  eax,BYTE PTR [rsp+0x20]
                result = result | (T(b) << @intCast(ShiftType, index * 8));
  20aeb7:	0f b6 4c 24 21       	movzx  ecx,BYTE PTR [rsp+0x21]
  20aebc:	89 ca                	mov    edx,ecx
  20aebe:	c1 e2 08             	shl    edx,0x8
  20aec1:	09 c2                	or     edx,eax
                result = (result << 8) | b;
  20aec3:	c1 e0 08             	shl    eax,0x8
  20aec6:	09 c8                	or     eax,ecx
    switch (endian) {
  20aec8:	f6 44 24 40 01       	test   BYTE PTR [rsp+0x40],0x1
  20aecd:	66 0f 45 c2          	cmovne ax,dx
  20aed1:	83 c0 ff             	add    eax,0xffffffff
  20aed4:	0f b7 c8             	movzx  ecx,ax
  20aed7:	83 f9 03             	cmp    ecx,0x3
  20aeda:	0f 87 43 03 00 00    	ja     20b223 <openSelfDebugInfo+0x933>
  20aee0:	24 03                	and    al,0x3
  20aee2:	88 45 13             	mov    BYTE PTR [rbp+0x13],al
            3 => FileType.Shared,
            4 => FileType.Core,
            else => return error.InvalidFormat,
        };

        elf.arch = switch (try in.readInt(elf.endian, u16)) {
  20aee5:	8a 45 12             	mov    al,BYTE PTR [rbp+0x12]
            try self.readNoEof(bytes[0..]);
  20aee8:	88 44 24 40          	mov    BYTE PTR [rsp+0x40],al
  20aeec:	48 8d 44 24 20       	lea    rax,[rsp+0x20]
  20aef1:	48 89 84 24 98 00 00 	mov    QWORD PTR [rsp+0x98],rax
  20aef8:	00 
  20aef9:	48 c7 84 24 a0 00 00 	mov    QWORD PTR [rsp+0xa0],0x2
  20af00:	00 02 00 00 00 
  20af05:	48 8d bc 24 f0 00 00 	lea    rdi,[rsp+0xf0]
  20af0c:	00 
  20af0d:	48 8d 94 24 98 00 00 	lea    rdx,[rsp+0x98]
  20af14:	00 
            return self.readFn(self, buffer);
  20af15:	48 8d 74 24 58       	lea    rsi,[rsp+0x58]
  20af1a:	ff 54 24 58          	call   QWORD PTR [rsp+0x58]
  20af1e:	44 0f b7 ac 24 f0 00 	movzx  r13d,WORD PTR [rsp+0xf0]
  20af25:	00 00 
            const amt_read = try self.read(buf);
  20af27:	66 45 85 ed          	test   r13w,r13w
  20af2b:	0f 85 0b fc ff ff    	jne    20ab3c <openSelfDebugInfo+0x24c>
  20af31:	48 8b 84 24 f8 00 00 	mov    rax,QWORD PTR [rsp+0xf8]
  20af38:	00 
  20af39:	66 41 bd 1e 00       	mov    r13w,0x1e
            if (amt_read < buf.len) return error.EndOfStream;
  20af3e:	48 3b 84 24 a0 00 00 	cmp    rax,QWORD PTR [rsp+0xa0]
  20af45:	00 
  20af46:	0f 82 f0 fb ff ff    	jb     20ab3c <openSelfDebugInfo+0x24c>
  20af4c:	0f b6 44 24 20       	movzx  eax,BYTE PTR [rsp+0x20]
                result = result | (T(b) << @intCast(ShiftType, index * 8));
  20af51:	0f b6 4c 24 21       	movzx  ecx,BYTE PTR [rsp+0x21]
  20af56:	89 ca                	mov    edx,ecx
  20af58:	c1 e2 08             	shl    edx,0x8
  20af5b:	09 c2                	or     edx,eax
                result = (result << 8) | b;
  20af5d:	c1 e0 08             	shl    eax,0x8
  20af60:	09 c8                	or     eax,ecx
    switch (endian) {
  20af62:	f6 44 24 40 01       	test   BYTE PTR [rsp+0x40],0x1
  20af67:	66 0f 45 c2          	cmovne ax,dx
  20af6b:	8d 48 fe             	lea    ecx,[rax-0x2]
  20af6e:	0f b7 c9             	movzx  ecx,cx
  20af71:	83 f9 3c             	cmp    ecx,0x3c
  20af74:	77 1b                	ja     20af91 <openSelfDebugInfo+0x6a1>
  20af76:	31 c0                	xor    eax,eax
  20af78:	48 8d 15 b9 55 ff ff 	lea    rdx,[rip+0xffffffffffff55b9]        # 200538 <app_mask+0x2b8>
  20af7f:	48 63 0c 8a          	movsxd rcx,DWORD PTR [rdx+rcx*4]
  20af83:	48 01 d1             	add    rcx,rdx
  20af86:	66 41 bd 1f 00       	mov    r13w,0x1f
  20af8b:	ff e1                	jmp    rcx
  20af8d:	b0 01                	mov    al,0x1
  20af8f:	eb 28                	jmp    20afb9 <openSelfDebugInfo+0x6c9>
  20af91:	0f b7 c0             	movzx  eax,ax
  20af94:	3d b7 00 00 00       	cmp    eax,0xb7
  20af99:	0f 85 84 02 00 00    	jne    20b223 <openSelfDebugInfo+0x933>
  20af9f:	b0 08                	mov    al,0x8
  20afa1:	eb 16                	jmp    20afb9 <openSelfDebugInfo+0x6c9>
  20afa3:	b0 07                	mov    al,0x7
  20afa5:	eb 12                	jmp    20afb9 <openSelfDebugInfo+0x6c9>
  20afa7:	b0 06                	mov    al,0x6
  20afa9:	eb 0e                	jmp    20afb9 <openSelfDebugInfo+0x6c9>
  20afab:	b0 02                	mov    al,0x2
  20afad:	eb 0a                	jmp    20afb9 <openSelfDebugInfo+0x6c9>
  20afaf:	b0 04                	mov    al,0x4
  20afb1:	eb 06                	jmp    20afb9 <openSelfDebugInfo+0x6c9>
  20afb3:	b0 03                	mov    al,0x3
  20afb5:	eb 02                	jmp    20afb9 <openSelfDebugInfo+0x6c9>
  20afb7:	b0 05                	mov    al,0x5
  20afb9:	24 0f                	and    al,0xf
  20afbb:	88 45 14             	mov    BYTE PTR [rbp+0x14],al
            0x3E => Arch.x86_64,
            0xb7 => Arch.AArch64,
            else => return error.InvalidFormat,
        };

        const elf_version = try in.readInt(elf.endian, u32);
  20afbe:	8a 45 12             	mov    al,BYTE PTR [rbp+0x12]
            try self.readNoEof(bytes[0..]);
  20afc1:	88 44 24 40          	mov    BYTE PTR [rsp+0x40],al
  20afc5:	48 8d 44 24 20       	lea    rax,[rsp+0x20]
  20afca:	48 89 84 24 98 00 00 	mov    QWORD PTR [rsp+0x98],rax
  20afd1:	00 
  20afd2:	48 c7 84 24 a0 00 00 	mov    QWORD PTR [rsp+0xa0],0x4
  20afd9:	00 04 00 00 00 
  20afde:	48 8d bc 24 f0 00 00 	lea    rdi,[rsp+0xf0]
  20afe5:	00 
  20afe6:	48 8d 94 24 98 00 00 	lea    rdx,[rsp+0x98]
  20afed:	00 
            return self.readFn(self, buffer);
  20afee:	48 8d 74 24 58       	lea    rsi,[rsp+0x58]
  20aff3:	ff 54 24 58          	call   QWORD PTR [rsp+0x58]
  20aff7:	44 0f b7 ac 24 f0 00 	movzx  r13d,WORD PTR [rsp+0xf0]
  20affe:	00 00 
            const amt_read = try self.read(buf);
  20b000:	66 45 85 ed          	test   r13w,r13w
  20b004:	0f 85 32 fb ff ff    	jne    20ab3c <openSelfDebugInfo+0x24c>
  20b00a:	48 8b 84 24 f8 00 00 	mov    rax,QWORD PTR [rsp+0xf8]
  20b011:	00 
  20b012:	66 41 bd 1e 00       	mov    r13w,0x1e
            if (amt_read < buf.len) return error.EndOfStream;
  20b017:	48 3b 84 24 a0 00 00 	cmp    rax,QWORD PTR [rsp+0xa0]
  20b01e:	00 
  20b01f:	0f 82 17 fb ff ff    	jb     20ab3c <openSelfDebugInfo+0x24c>
  20b025:	0f b6 44 24 20       	movzx  eax,BYTE PTR [rsp+0x20]
  20b02a:	0f b6 4c 24 21       	movzx  ecx,BYTE PTR [rsp+0x21]
  20b02f:	f6 44 24 40 01       	test   BYTE PTR [rsp+0x40],0x1
  20b034:	74 23                	je     20b059 <openSelfDebugInfo+0x769>
                result = result | (T(b) << @intCast(ShiftType, index * 8));
  20b036:	c1 e1 08             	shl    ecx,0x8
  20b039:	09 c1                	or     ecx,eax
  20b03b:	0f b6 54 24 22       	movzx  edx,BYTE PTR [rsp+0x22]
  20b040:	c1 e2 10             	shl    edx,0x10
  20b043:	09 ca                	or     edx,ecx
  20b045:	0f b6 44 24 23       	movzx  eax,BYTE PTR [rsp+0x23]
  20b04a:	c1 e0 18             	shl    eax,0x18
  20b04d:	09 d0                	or     eax,edx
        if (elf_version != 1) return error.InvalidFormat;
  20b04f:	83 f8 01             	cmp    eax,0x1
  20b052:	74 27                	je     20b07b <openSelfDebugInfo+0x78b>
  20b054:	e9 ca 01 00 00       	jmp    20b223 <openSelfDebugInfo+0x933>
                result = (result << 8) | b;
  20b059:	c1 e0 08             	shl    eax,0x8
  20b05c:	09 c8                	or     eax,ecx
  20b05e:	c1 e0 08             	shl    eax,0x8
  20b061:	0f b6 4c 24 22       	movzx  ecx,BYTE PTR [rsp+0x22]
  20b066:	09 c1                	or     ecx,eax
  20b068:	c1 e1 08             	shl    ecx,0x8
  20b06b:	0f b6 44 24 23       	movzx  eax,BYTE PTR [rsp+0x23]
  20b070:	09 c8                	or     eax,ecx
  20b072:	83 f8 01             	cmp    eax,0x1
  20b075:	0f 85 a8 01 00 00    	jne    20b223 <openSelfDebugInfo+0x933>
  20b07b:	8a 45 12             	mov    al,BYTE PTR [rbp+0x12]

        if (elf.is_64) {
  20b07e:	88 44 24 40          	mov    BYTE PTR [rsp+0x40],al
  20b082:	80 7d 11 01          	cmp    BYTE PTR [rbp+0x11],0x1
  20b086:	0f 85 e3 2b 00 00    	jne    20dc6f <openSelfDebugInfo+0x337f>
            elf.entry_addr = try in.readInt(elf.endian, u64);
  20b08c:	0f b6 54 24 40       	movzx  edx,BYTE PTR [rsp+0x40]
  20b091:	48 8d bc 24 68 04 00 	lea    rdi,[rsp+0x468]
  20b098:	00 
  20b099:	48 8d 74 24 58       	lea    rsi,[rsp+0x58]
  20b09e:	e8 ed 47 00 00       	call   20f890 <InStream(ReadError)_readInt.30>
  20b0a3:	44 0f b7 ac 24 68 04 	movzx  r13d,WORD PTR [rsp+0x468]
  20b0aa:	00 00 
  20b0ac:	66 45 85 ed          	test   r13w,r13w
  20b0b0:	0f 85 86 fa ff ff    	jne    20ab3c <openSelfDebugInfo+0x24c>
  20b0b6:	48 8b 84 24 70 04 00 	mov    rax,QWORD PTR [rsp+0x470]
  20b0bd:	00 
  20b0be:	48 89 45 18          	mov    QWORD PTR [rbp+0x18],rax
            elf.program_header_offset = try in.readInt(elf.endian, u64);
  20b0c2:	0f b6 55 12          	movzx  edx,BYTE PTR [rbp+0x12]
  20b0c6:	48 8d bc 24 c0 02 00 	lea    rdi,[rsp+0x2c0]
  20b0cd:	00 
  20b0ce:	48 8d 74 24 58       	lea    rsi,[rsp+0x58]
  20b0d3:	e8 b8 47 00 00       	call   20f890 <InStream(ReadError)_readInt.30>
  20b0d8:	44 0f b7 ac 24 c0 02 	movzx  r13d,WORD PTR [rsp+0x2c0]
  20b0df:	00 00 
  20b0e1:	66 45 85 ed          	test   r13w,r13w
  20b0e5:	0f 85 51 fa ff ff    	jne    20ab3c <openSelfDebugInfo+0x24c>
  20b0eb:	48 8b 84 24 c8 02 00 	mov    rax,QWORD PTR [rsp+0x2c8]
  20b0f2:	00 
  20b0f3:	48 89 45 20          	mov    QWORD PTR [rbp+0x20],rax
            elf.section_header_offset = try in.readInt(elf.endian, u64);
  20b0f7:	0f b6 55 12          	movzx  edx,BYTE PTR [rbp+0x12]
  20b0fb:	48 8d bc 24 88 02 00 	lea    rdi,[rsp+0x288]
  20b102:	00 
  20b103:	48 8d 74 24 58       	lea    rsi,[rsp+0x58]
  20b108:	e8 83 47 00 00       	call   20f890 <InStream(ReadError)_readInt.30>
  20b10d:	44 0f b7 ac 24 88 02 	movzx  r13d,WORD PTR [rsp+0x288]
  20b114:	00 00 
  20b116:	66 45 85 ed          	test   r13w,r13w
  20b11a:	0f 85 1c fa ff ff    	jne    20ab3c <openSelfDebugInfo+0x24c>
  20b120:	48 8b 84 24 90 02 00 	mov    rax,QWORD PTR [rsp+0x290]
  20b127:	00 
  20b128:	48 89 45 28          	mov    QWORD PTR [rbp+0x28],rax
            elf.program_header_offset = u64(try in.readInt(elf.endian, u32));
            elf.section_header_offset = u64(try in.readInt(elf.endian, u32));
        }

        // skip over flags
        try elf.in_file.seekForward(4);
  20b12c:	49 8b 07             	mov    rax,QWORD PTR [r15]
    return syscall3(SYS_lseek, @intCast(usize, fd), @bitCast(usize, offset), ref_pos);
  20b12f:	48 63 38             	movsxd rdi,DWORD PTR [rax]
  20b132:	b8 08 00 00 00       	mov    eax,0x8
  20b137:	be 04 00 00 00       	mov    esi,0x4
  20b13c:	ba 01 00 00 00       	mov    edx,0x1
  20b141:	0f 05                	syscall 
    return if (signed_r > -4096 and signed_r < 0) @intCast(usize, -signed_r) else 0;
  20b143:	48 89 c2             	mov    rdx,rax
  20b146:	48 f7 da             	neg    rdx
  20b149:	31 c9                	xor    ecx,ecx
  20b14b:	48 3d 00 f0 ff ff    	cmp    rax,0xfffffffffffff000
  20b151:	48 0f 47 ca          	cmova  rcx,rdx
  20b155:	48 83 f9 1d          	cmp    rcx,0x1d
  20b159:	0f 87 e1 37 00 00    	ja     20e940 <openSelfDebugInfo+0x4050>
  20b15f:	48 8d 05 c6 54 ff ff 	lea    rax,[rip+0xffffffffffff54c6]        # 20062c <app_mask+0x3ac>
  20b166:	48 63 0c 88          	movsxd rcx,DWORD PTR [rax+rcx*4]
  20b16a:	48 01 c1             	add    rcx,rax
  20b16d:	66 41 bd 02 00       	mov    r13w,0x2
  20b172:	ff e1                	jmp    rcx

        const header_size = try in.readInt(elf.endian, u16);
  20b174:	48 8b 44 24 68       	mov    rax,QWORD PTR [rsp+0x68]
  20b179:	8a 00                	mov    al,BYTE PTR [rax]
            try self.readNoEof(bytes[0..]);
  20b17b:	88 44 24 40          	mov    BYTE PTR [rsp+0x40],al
  20b17f:	48 8d 44 24 20       	lea    rax,[rsp+0x20]
  20b184:	48 89 84 24 98 00 00 	mov    QWORD PTR [rsp+0x98],rax
  20b18b:	00 
  20b18c:	48 c7 84 24 a0 00 00 	mov    QWORD PTR [rsp+0xa0],0x2
  20b193:	00 02 00 00 00 
  20b198:	48 8d bc 24 f0 00 00 	lea    rdi,[rsp+0xf0]
  20b19f:	00 
  20b1a0:	48 8d 94 24 98 00 00 	lea    rdx,[rsp+0x98]
  20b1a7:	00 
            return self.readFn(self, buffer);
  20b1a8:	48 8d 74 24 58       	lea    rsi,[rsp+0x58]
  20b1ad:	ff 54 24 58          	call   QWORD PTR [rsp+0x58]
  20b1b1:	44 0f b7 ac 24 f0 00 	movzx  r13d,WORD PTR [rsp+0xf0]
  20b1b8:	00 00 
            const amt_read = try self.read(buf);
  20b1ba:	66 45 85 ed          	test   r13w,r13w
  20b1be:	0f 85 78 f9 ff ff    	jne    20ab3c <openSelfDebugInfo+0x24c>
  20b1c4:	48 8b 84 24 f8 00 00 	mov    rax,QWORD PTR [rsp+0xf8]
  20b1cb:	00 
  20b1cc:	66 41 bd 1e 00       	mov    r13w,0x1e
            if (amt_read < buf.len) return error.EndOfStream;
  20b1d1:	48 3b 84 24 a0 00 00 	cmp    rax,QWORD PTR [rsp+0xa0]
  20b1d8:	00 
  20b1d9:	0f 82 5d f9 ff ff    	jb     20ab3c <openSelfDebugInfo+0x24c>
  20b1df:	0f b6 44 24 20       	movzx  eax,BYTE PTR [rsp+0x20]
                result = result | (T(b) << @intCast(ShiftType, index * 8));
  20b1e4:	0f b6 4c 24 21       	movzx  ecx,BYTE PTR [rsp+0x21]
  20b1e9:	89 ca                	mov    edx,ecx
  20b1eb:	c1 e2 08             	shl    edx,0x8
  20b1ee:	09 c2                	or     edx,eax
                result = (result << 8) | b;
  20b1f0:	c1 e0 08             	shl    eax,0x8
  20b1f3:	09 c8                	or     eax,ecx
    switch (endian) {
  20b1f5:	f6 44 24 40 01       	test   BYTE PTR [rsp+0x40],0x1
  20b1fa:	66 0f 45 c2          	cmovne ax,dx
        if ((elf.is_64 and header_size != 64) or (!elf.is_64 and header_size != 52)) {
  20b1fe:	8a 4d 11             	mov    cl,BYTE PTR [rbp+0x11]
  20b201:	80 f9 01             	cmp    cl,0x1
  20b204:	75 08                	jne    20b20e <openSelfDebugInfo+0x91e>
  20b206:	0f b7 d0             	movzx  edx,ax
  20b209:	83 fa 40             	cmp    edx,0x40
  20b20c:	75 15                	jne    20b223 <openSelfDebugInfo+0x933>
  20b20e:	0f b7 c0             	movzx  eax,ax
  20b211:	83 f8 34             	cmp    eax,0x34
  20b214:	0f 84 65 2c 00 00    	je     20de7f <openSelfDebugInfo+0x358f>
  20b21a:	80 f1 01             	xor    cl,0x1
  20b21d:	0f 84 5c 2c 00 00    	je     20de7f <openSelfDebugInfo+0x358f>
  20b223:	66 41 bd 1f 00       	mov    r13w,0x1f
  20b228:	66 45 85 ed          	test   r13w,r13w
  20b22c:	0f 85 14 f9 ff ff    	jne    20ab46 <openSelfDebugInfo+0x256>
            st.debug_info = (try st.elf.findSection(".debug_info")) orelse return error.MissingDebugInfo;
  20b232:	48 8d 15 2f 59 01 00 	lea    rdx,[rip+0x1592f]        # 220b68 <__unnamed_45>
  20b239:	48 8d bc 24 40 03 00 	lea    rdi,[rsp+0x340]
  20b240:	00 
  20b241:	4c 89 fe             	mov    rsi,r15
  20b244:	c5 f8 77             	vzeroupper 
  20b247:	e8 34 43 00 00       	call   20f580 <Elf_findSection>
  20b24c:	66 83 bc 24 40 03 00 	cmp    WORD PTR [rsp+0x340],0x0
  20b253:	00 00 
  20b255:	0f 84 7f 00 00 00    	je     20b2da <openSelfDebugInfo+0x9ea>
        const bytes = @sliceToBytes(memory);
  20b25b:	48 8b 45 48          	mov    rax,QWORD PTR [rbp+0x48]
  20b25f:	48 c1 e0 06          	shl    rax,0x6
        if (bytes.len == 0) return;
  20b263:	74 26                	je     20b28b <openSelfDebugInfo+0x99b>
  20b265:	48 8b 7d 50          	mov    rdi,QWORD PTR [rbp+0x50]
        const bytes = @sliceToBytes(memory);
  20b269:	48 8b 4d 40          	mov    rcx,QWORD PTR [rbp+0x40]
        self.freeFn(self, non_const_ptr[0..bytes.len]);
  20b26d:	48 8b 57 10          	mov    rdx,QWORD PTR [rdi+0x10]
  20b271:	48 89 8c 24 f0 00 00 	mov    QWORD PTR [rsp+0xf0],rcx
  20b278:	00 
  20b279:	48 89 84 24 f8 00 00 	mov    QWORD PTR [rsp+0xf8],rax
  20b280:	00 
  20b281:	48 8d b4 24 f0 00 00 	lea    rsi,[rsp+0xf0]
  20b288:	00 
  20b289:	ff d2                	call   rdx
    }

    pub fn close(elf: *Elf) void {
        elf.allocator.free(elf.section_headers);

        if (elf.auto_close_stream) elf.in_file.close();
  20b28b:	80 7d 10 01          	cmp    BYTE PTR [rbp+0x10],0x1
  20b28f:	0f 85 90 02 00 00    	jne    20b525 <openSelfDebugInfo+0xc35>
  20b295:	49 8b 07             	mov    rax,QWORD PTR [r15]
  20b298:	48 63 38             	movsxd rdi,DWORD PTR [rax]
  20b29b:	0f 1f 44 00 00       	nop    DWORD PTR [rax+rax*1+0x0]
    return asm volatile ("syscall"
  20b2a0:	b8 03 00 00 00       	mov    eax,0x3
  20b2a5:	0f 05                	syscall 
            switch (err) {
  20b2a7:	48 83 f8 fc          	cmp    rax,0xfffffffffffffffc
  20b2ab:	74 f3                	je     20b2a0 <openSelfDebugInfo+0x9b0>
            const first = list.first orelse return null;
  20b2ad:	48 8b 05 74 5d 01 00 	mov    rax,QWORD PTR [rip+0x15d74]        # 221028 <emfile_promise_queue>
  20b2b4:	48 85 c0             	test   rax,rax
  20b2b7:	0f 84 68 02 00 00    	je     20b525 <openSelfDebugInfo+0xc35>
            if (node.prev) |prev_node| {
  20b2bd:	48 8b 08             	mov    rcx,QWORD PTR [rax]
  20b2c0:	48 85 c9             	test   rcx,rcx
  20b2c3:	0f 84 f5 01 00 00    	je     20b4be <openSelfDebugInfo+0xbce>
                prev_node.next = node.next;
  20b2c9:	48 8b 50 08          	mov    rdx,QWORD PTR [rax+0x8]
  20b2cd:	48 89 51 08          	mov    QWORD PTR [rcx+0x8],rdx
            if (node.next) |next_node| {
  20b2d1:	48 8b 48 08          	mov    rcx,QWORD PTR [rax+0x8]
  20b2d5:	e9 ef 01 00 00       	jmp    20b4c9 <openSelfDebugInfo+0xbd9>
  20b2da:	48 8b 84 24 48 03 00 	mov    rax,QWORD PTR [rsp+0x348]
  20b2e1:	00 
  20b2e2:	48 85 c0             	test   rax,rax
  20b2e5:	0f 84 a4 00 00 00    	je     20b38f <openSelfDebugInfo+0xa9f>
  20b2eb:	48 89 45 60          	mov    QWORD PTR [rbp+0x60],rax
            st.debug_abbrev = (try st.elf.findSection(".debug_abbrev")) orelse return error.MissingDebugInfo;
  20b2ef:	48 8d 15 82 58 01 00 	lea    rdx,[rip+0x15882]        # 220b78 <__unnamed_46>
  20b2f6:	48 8d bc 24 30 03 00 	lea    rdi,[rsp+0x330]
  20b2fd:	00 
  20b2fe:	4c 89 fe             	mov    rsi,r15
  20b301:	e8 7a 42 00 00       	call   20f580 <Elf_findSection>
  20b306:	66 83 bc 24 30 03 00 	cmp    WORD PTR [rsp+0x330],0x0
  20b30d:	00 00 
  20b30f:	0f 84 f4 00 00 00    	je     20b409 <openSelfDebugInfo+0xb19>
        const bytes = @sliceToBytes(memory);
  20b315:	48 8b 45 48          	mov    rax,QWORD PTR [rbp+0x48]
  20b319:	48 c1 e0 06          	shl    rax,0x6
        if (bytes.len == 0) return;
  20b31d:	74 26                	je     20b345 <openSelfDebugInfo+0xa55>
  20b31f:	48 8b 7d 50          	mov    rdi,QWORD PTR [rbp+0x50]
        const bytes = @sliceToBytes(memory);
  20b323:	48 8b 4d 40          	mov    rcx,QWORD PTR [rbp+0x40]
        self.freeFn(self, non_const_ptr[0..bytes.len]);
  20b327:	48 8b 57 10          	mov    rdx,QWORD PTR [rdi+0x10]
  20b32b:	48 89 8c 24 f0 00 00 	mov    QWORD PTR [rsp+0xf0],rcx
  20b332:	00 
  20b333:	48 89 84 24 f8 00 00 	mov    QWORD PTR [rsp+0xf8],rax
  20b33a:	00 
  20b33b:	48 8d b4 24 f0 00 00 	lea    rsi,[rsp+0xf0]
  20b342:	00 
  20b343:	ff d2                	call   rdx
  20b345:	80 7d 10 01          	cmp    BYTE PTR [rbp+0x10],0x1
  20b349:	0f 85 68 04 00 00    	jne    20b7b7 <openSelfDebugInfo+0xec7>
  20b34f:	49 8b 07             	mov    rax,QWORD PTR [r15]
  20b352:	48 63 38             	movsxd rdi,DWORD PTR [rax]
  20b355:	b8 03 00 00 00       	mov    eax,0x3
  20b35a:	0f 05                	syscall 
  20b35c:	48 83 f8 fc          	cmp    rax,0xfffffffffffffffc
  20b360:	74 f3                	je     20b355 <openSelfDebugInfo+0xa65>
            const first = list.first orelse return null;
  20b362:	48 8b 05 bf 5c 01 00 	mov    rax,QWORD PTR [rip+0x15cbf]        # 221028 <emfile_promise_queue>
  20b369:	48 85 c0             	test   rax,rax
  20b36c:	0f 84 45 04 00 00    	je     20b7b7 <openSelfDebugInfo+0xec7>
            if (node.prev) |prev_node| {
  20b372:	48 8b 08             	mov    rcx,QWORD PTR [rax]
  20b375:	48 85 c9             	test   rcx,rcx
  20b378:	0f 84 d5 03 00 00    	je     20b753 <openSelfDebugInfo+0xe63>
                prev_node.next = node.next;
  20b37e:	48 8b 50 08          	mov    rdx,QWORD PTR [rax+0x8]
  20b382:	48 89 51 08          	mov    QWORD PTR [rcx+0x8],rdx
            if (node.next) |next_node| {
  20b386:	48 8b 48 08          	mov    rcx,QWORD PTR [rax+0x8]
  20b38a:	e9 cf 03 00 00       	jmp    20b75e <openSelfDebugInfo+0xe6e>
        const bytes = @sliceToBytes(memory);
  20b38f:	48 8b 45 48          	mov    rax,QWORD PTR [rbp+0x48]
  20b393:	48 c1 e0 06          	shl    rax,0x6
        if (bytes.len == 0) return;
  20b397:	74 26                	je     20b3bf <openSelfDebugInfo+0xacf>
  20b399:	48 8b 7d 50          	mov    rdi,QWORD PTR [rbp+0x50]
        const bytes = @sliceToBytes(memory);
  20b39d:	48 8b 4d 40          	mov    rcx,QWORD PTR [rbp+0x40]
        self.freeFn(self, non_const_ptr[0..bytes.len]);
  20b3a1:	48 8b 57 10          	mov    rdx,QWORD PTR [rdi+0x10]
  20b3a5:	48 89 8c 24 f0 00 00 	mov    QWORD PTR [rsp+0xf0],rcx
  20b3ac:	00 
  20b3ad:	48 89 84 24 f8 00 00 	mov    QWORD PTR [rsp+0xf8],rax
  20b3b4:	00 
  20b3b5:	48 8d b4 24 f0 00 00 	lea    rsi,[rsp+0xf0]
  20b3bc:	00 
  20b3bd:	ff d2                	call   rdx
  20b3bf:	80 7d 10 01          	cmp    BYTE PTR [rbp+0x10],0x1
  20b3c3:	0f 85 35 05 00 00    	jne    20b8fe <openSelfDebugInfo+0x100e>
  20b3c9:	49 8b 07             	mov    rax,QWORD PTR [r15]
  20b3cc:	48 63 38             	movsxd rdi,DWORD PTR [rax]
  20b3cf:	b8 03 00 00 00       	mov    eax,0x3
  20b3d4:	0f 05                	syscall 
  20b3d6:	48 83 f8 fc          	cmp    rax,0xfffffffffffffffc
  20b3da:	74 f3                	je     20b3cf <openSelfDebugInfo+0xadf>
            const first = list.first orelse return null;
  20b3dc:	48 8b 05 45 5c 01 00 	mov    rax,QWORD PTR [rip+0x15c45]        # 221028 <emfile_promise_queue>
  20b3e3:	48 85 c0             	test   rax,rax
  20b3e6:	0f 84 12 05 00 00    	je     20b8fe <openSelfDebugInfo+0x100e>
            if (node.prev) |prev_node| {
  20b3ec:	48 8b 08             	mov    rcx,QWORD PTR [rax]
  20b3ef:	48 85 c9             	test   rcx,rcx
  20b3f2:	0f 84 a2 04 00 00    	je     20b89a <openSelfDebugInfo+0xfaa>
                prev_node.next = node.next;
  20b3f8:	48 8b 50 08          	mov    rdx,QWORD PTR [rax+0x8]
  20b3fc:	48 89 51 08          	mov    QWORD PTR [rcx+0x8],rdx
            if (node.next) |next_node| {
  20b400:	48 8b 48 08          	mov    rcx,QWORD PTR [rax+0x8]
  20b404:	e9 9c 04 00 00       	jmp    20b8a5 <openSelfDebugInfo+0xfb5>
  20b409:	48 8b 84 24 38 03 00 	mov    rax,QWORD PTR [rsp+0x338]
  20b410:	00 
  20b411:	48 85 c0             	test   rax,rax
  20b414:	0f 84 0a 02 00 00    	je     20b624 <openSelfDebugInfo+0xd34>
  20b41a:	48 89 45 68          	mov    QWORD PTR [rbp+0x68],rax
            st.debug_str = (try st.elf.findSection(".debug_str")) orelse return error.MissingDebugInfo;
  20b41e:	48 8d 15 63 57 01 00 	lea    rdx,[rip+0x15763]        # 220b88 <__unnamed_47>
  20b425:	48 8d bc 24 20 03 00 	lea    rdi,[rsp+0x320]
  20b42c:	00 
  20b42d:	4c 89 fe             	mov    rsi,r15
  20b430:	e8 4b 41 00 00       	call   20f580 <Elf_findSection>
  20b435:	66 83 bc 24 20 03 00 	cmp    WORD PTR [rsp+0x320],0x0
  20b43c:	00 00 
  20b43e:	0f 84 5a 02 00 00    	je     20b69e <openSelfDebugInfo+0xdae>
        const bytes = @sliceToBytes(memory);
  20b444:	48 8b 45 48          	mov    rax,QWORD PTR [rbp+0x48]
  20b448:	48 c1 e0 06          	shl    rax,0x6
        if (bytes.len == 0) return;
  20b44c:	74 26                	je     20b474 <openSelfDebugInfo+0xb84>
  20b44e:	48 8b 7d 50          	mov    rdi,QWORD PTR [rbp+0x50]
        const bytes = @sliceToBytes(memory);
  20b452:	48 8b 4d 40          	mov    rcx,QWORD PTR [rbp+0x40]
        self.freeFn(self, non_const_ptr[0..bytes.len]);
  20b456:	48 8b 57 10          	mov    rdx,QWORD PTR [rdi+0x10]
  20b45a:	48 89 8c 24 f0 00 00 	mov    QWORD PTR [rsp+0xf0],rcx
  20b461:	00 
  20b462:	48 89 84 24 f8 00 00 	mov    QWORD PTR [rsp+0xf8],rax
  20b469:	00 
  20b46a:	48 8d b4 24 f0 00 00 	lea    rsi,[rsp+0xf0]
  20b471:	00 
  20b472:	ff d2                	call   rdx
  20b474:	80 7d 10 01          	cmp    BYTE PTR [rbp+0x10],0x1
  20b478:	0f 85 f0 06 00 00    	jne    20bb6e <openSelfDebugInfo+0x127e>
  20b47e:	49 8b 07             	mov    rax,QWORD PTR [r15]
  20b481:	48 63 38             	movsxd rdi,DWORD PTR [rax]
  20b484:	b8 03 00 00 00       	mov    eax,0x3
  20b489:	0f 05                	syscall 
  20b48b:	48 83 f8 fc          	cmp    rax,0xfffffffffffffffc
  20b48f:	74 f3                	je     20b484 <openSelfDebugInfo+0xb94>
            const first = list.first orelse return null;
  20b491:	48 8b 05 90 5b 01 00 	mov    rax,QWORD PTR [rip+0x15b90]        # 221028 <emfile_promise_queue>
  20b498:	48 85 c0             	test   rax,rax
  20b49b:	0f 84 cd 06 00 00    	je     20bb6e <openSelfDebugInfo+0x127e>
            if (node.prev) |prev_node| {
  20b4a1:	48 8b 08             	mov    rcx,QWORD PTR [rax]
  20b4a4:	48 85 c9             	test   rcx,rcx
  20b4a7:	0f 84 5d 06 00 00    	je     20bb0a <openSelfDebugInfo+0x121a>
                prev_node.next = node.next;
  20b4ad:	48 8b 50 08          	mov    rdx,QWORD PTR [rax+0x8]
  20b4b1:	48 89 51 08          	mov    QWORD PTR [rcx+0x8],rdx
            if (node.next) |next_node| {
  20b4b5:	48 8b 48 08          	mov    rcx,QWORD PTR [rax+0x8]
  20b4b9:	e9 57 06 00 00       	jmp    20bb15 <openSelfDebugInfo+0x1225>
                list.first = node.next;
  20b4be:	48 8b 48 08          	mov    rcx,QWORD PTR [rax+0x8]
  20b4c2:	48 89 0d 5f 5b 01 00 	mov    QWORD PTR [rip+0x15b5f],rcx        # 221028 <emfile_promise_queue>
            if (node.next) |next_node| {
  20b4c9:	48 85 c9             	test   rcx,rcx
  20b4cc:	48 8b 10             	mov    rdx,QWORD PTR [rax]
  20b4cf:	48 8d 35 5a 5b 01 00 	lea    rsi,[rip+0x15b5a]        # 221030 <emfile_promise_queue+0x8>
  20b4d6:	48 0f 45 f1          	cmovne rsi,rcx
  20b4da:	48 89 16             	mov    QWORD PTR [rsi],rdx
            list.len -= 1;
  20b4dd:	48 83 05 53 5b 01 00 	add    QWORD PTR [rip+0x15b53],0xffffffffffffffff        # 221038 <emfile_promise_queue+0x10>
  20b4e4:	ff 
            assert(list.len == 0 or (list.first != null and list.last != null));
  20b4e5:	74 1e                	je     20b505 <openSelfDebugInfo+0xc15>
  20b4e7:	48 83 3d 39 5b 01 00 	cmp    QWORD PTR [rip+0x15b39],0x0        # 221028 <emfile_promise_queue>
  20b4ee:	00 
  20b4ef:	0f 84 5f 34 00 00    	je     20e954 <openSelfDebugInfo+0x4064>
  20b4f5:	48 8b 0d 34 5b 01 00 	mov    rcx,QWORD PTR [rip+0x15b34]        # 221030 <emfile_promise_queue+0x8>
  20b4fc:	48 85 c9             	test   rcx,rcx
  20b4ff:	0f 84 4f 34 00 00    	je     20e954 <openSelfDebugInfo+0x4064>
                    if (emfile_promise_queue.popFirst()) |p| resume p.data;
  20b505:	48 8b 78 10          	mov    rdi,QWORD PTR [rax+0x10]
  20b509:	48 8b 47 10          	mov    rax,QWORD PTR [rdi+0x10]
  20b50d:	0f 1f 00             	nop    DWORD PTR [rax]
  20b510:	48 89 c1             	mov    rcx,rax
  20b513:	48 83 e1 fd          	and    rcx,0xfffffffffffffffd
  20b517:	f0 48 0f b1 4f 10    	lock cmpxchg QWORD PTR [rdi+0x10],rcx
  20b51d:	75 f1                	jne    20b510 <openSelfDebugInfo+0xc20>
  20b51f:	a8 01                	test   al,0x1
  20b521:	75 02                	jne    20b525 <openSelfDebugInfo+0xc35>
  20b523:	ff 17                	call   QWORD PTR [rdi]
  20b525:	48 63 7d 00          	movsxd rdi,DWORD PTR [rbp+0x0]
  20b529:	0f 1f 80 00 00 00 00 	nop    DWORD PTR [rax+0x0]
  20b530:	b8 03 00 00 00       	mov    eax,0x3
  20b535:	0f 05                	syscall 
            switch (err) {
  20b537:	48 83 f8 fc          	cmp    rax,0xfffffffffffffffc
  20b53b:	74 f3                	je     20b530 <openSelfDebugInfo+0xc40>
            const first = list.first orelse return null;
  20b53d:	48 8b 05 e4 5a 01 00 	mov    rax,QWORD PTR [rip+0x15ae4]        # 221028 <emfile_promise_queue>
  20b544:	48 85 c0             	test   rax,rax
  20b547:	74 7c                	je     20b5c5 <openSelfDebugInfo+0xcd5>
            if (node.prev) |prev_node| {
  20b549:	48 8b 08             	mov    rcx,QWORD PTR [rax]
  20b54c:	48 85 c9             	test   rcx,rcx
  20b54f:	74 0e                	je     20b55f <openSelfDebugInfo+0xc6f>
                prev_node.next = node.next;
  20b551:	48 8b 50 08          	mov    rdx,QWORD PTR [rax+0x8]
  20b555:	48 89 51 08          	mov    QWORD PTR [rcx+0x8],rdx
            if (node.next) |next_node| {
  20b559:	48 8b 48 08          	mov    rcx,QWORD PTR [rax+0x8]
  20b55d:	eb 0b                	jmp    20b56a <openSelfDebugInfo+0xc7a>
                list.first = node.next;
  20b55f:	48 8b 48 08          	mov    rcx,QWORD PTR [rax+0x8]
  20b563:	48 89 0d be 5a 01 00 	mov    QWORD PTR [rip+0x15abe],rcx        # 221028 <emfile_promise_queue>
            if (node.next) |next_node| {
  20b56a:	48 85 c9             	test   rcx,rcx
  20b56d:	48 8b 10             	mov    rdx,QWORD PTR [rax]
  20b570:	48 8d 35 b9 5a 01 00 	lea    rsi,[rip+0x15ab9]        # 221030 <emfile_promise_queue+0x8>
  20b577:	48 0f 45 f1          	cmovne rsi,rcx
  20b57b:	48 89 16             	mov    QWORD PTR [rsi],rdx
            list.len -= 1;
  20b57e:	48 83 05 b2 5a 01 00 	add    QWORD PTR [rip+0x15ab2],0xffffffffffffffff        # 221038 <emfile_promise_queue+0x10>
  20b585:	ff 
            assert(list.len == 0 or (list.first != null and list.last != null));
  20b586:	74 1e                	je     20b5a6 <openSelfDebugInfo+0xcb6>
  20b588:	48 83 3d 98 5a 01 00 	cmp    QWORD PTR [rip+0x15a98],0x0        # 221028 <emfile_promise_queue>
  20b58f:	00 
  20b590:	0f 84 be 33 00 00    	je     20e954 <openSelfDebugInfo+0x4064>
  20b596:	48 8b 0d 93 5a 01 00 	mov    rcx,QWORD PTR [rip+0x15a93]        # 221030 <emfile_promise_queue+0x8>
  20b59d:	48 85 c9             	test   rcx,rcx
  20b5a0:	0f 84 ae 33 00 00    	je     20e954 <openSelfDebugInfo+0x4064>
                    if (emfile_promise_queue.popFirst()) |p| resume p.data;
  20b5a6:	48 8b 78 10          	mov    rdi,QWORD PTR [rax+0x10]
  20b5aa:	48 8b 47 10          	mov    rax,QWORD PTR [rdi+0x10]
  20b5ae:	66 90                	xchg   ax,ax
  20b5b0:	48 89 c1             	mov    rcx,rax
  20b5b3:	48 83 e1 fd          	and    rcx,0xfffffffffffffffd
  20b5b7:	f0 48 0f b1 4f 10    	lock cmpxchg QWORD PTR [rdi+0x10],rcx
  20b5bd:	75 f1                	jne    20b5b0 <openSelfDebugInfo+0xcc0>
  20b5bf:	a8 01                	test   al,0x1
  20b5c1:	75 02                	jne    20b5c5 <openSelfDebugInfo+0xcd5>
  20b5c3:	ff 17                	call   QWORD PTR [rdi]
        self.freeFn(self, non_const_ptr[0..@sizeOf(@typeOf(ptr).Child)]);
  20b5c5:	49 8b 44 24 10       	mov    rax,QWORD PTR [r12+0x10]
  20b5ca:	48 89 ac 24 f0 00 00 	mov    QWORD PTR [rsp+0xf0],rbp
  20b5d1:	00 
  20b5d2:	48 c7 84 24 f8 00 00 	mov    QWORD PTR [rsp+0xf8],0xc8
  20b5d9:	00 c8 00 00 00 
  20b5de:	48 8d b4 24 f0 00 00 	lea    rsi,[rsp+0xf0]
  20b5e5:	00 
  20b5e6:	4c 89 e7             	mov    rdi,r12
  20b5e9:	ff d0                	call   rax
            st.debug_info = (try st.elf.findSection(".debug_info")) orelse return error.MissingDebugInfo;
  20b5eb:	0f b7 84 24 40 03 00 	movzx  eax,WORD PTR [rsp+0x340]
  20b5f2:	00 
  20b5f3:	66 41 89 06          	mov    WORD PTR [r14],ax
  20b5f7:	48 8b 84 24 e8 04 00 	mov    rax,QWORD PTR [rsp+0x4e8]
  20b5fe:	00 
  20b5ff:	48 8b 8c 24 ee 04 00 	mov    rcx,QWORD PTR [rsp+0x4ee]
  20b606:	00 
  20b607:	49 89 4e 08          	mov    QWORD PTR [r14+0x8],rcx
  20b60b:	49 89 46 02          	mov    QWORD PTR [r14+0x2],rax
  20b60f:	48 81 c4 e8 05 00 00 	add    rsp,0x5e8
  20b616:	5b                   	pop    rbx
  20b617:	41 5c                	pop    r12
  20b619:	41 5d                	pop    r13
  20b61b:	41 5e                	pop    r14
  20b61d:	41 5f                	pop    r15
  20b61f:	5d                   	pop    rbp
  20b620:	c5 f8 77             	vzeroupper 
  20b623:	c3                   	ret    
        const bytes = @sliceToBytes(memory);
  20b624:	48 8b 45 48          	mov    rax,QWORD PTR [rbp+0x48]
  20b628:	48 c1 e0 06          	shl    rax,0x6
        if (bytes.len == 0) return;
  20b62c:	74 26                	je     20b654 <openSelfDebugInfo+0xd64>
  20b62e:	48 8b 7d 50          	mov    rdi,QWORD PTR [rbp+0x50]
        const bytes = @sliceToBytes(memory);
  20b632:	48 8b 4d 40          	mov    rcx,QWORD PTR [rbp+0x40]
        self.freeFn(self, non_const_ptr[0..bytes.len]);
  20b636:	48 8b 57 10          	mov    rdx,QWORD PTR [rdi+0x10]
  20b63a:	48 89 8c 24 f0 00 00 	mov    QWORD PTR [rsp+0xf0],rcx
  20b641:	00 
  20b642:	48 89 84 24 f8 00 00 	mov    QWORD PTR [rsp+0xf8],rax
  20b649:	00 
  20b64a:	48 8d b4 24 f0 00 00 	lea    rsi,[rsp+0xf0]
  20b651:	00 
  20b652:	ff d2                	call   rdx
  20b654:	80 7d 10 01          	cmp    BYTE PTR [rbp+0x10],0x1
  20b658:	0f 85 52 06 00 00    	jne    20bcb0 <openSelfDebugInfo+0x13c0>
  20b65e:	49 8b 07             	mov    rax,QWORD PTR [r15]
  20b661:	48 63 38             	movsxd rdi,DWORD PTR [rax]
  20b664:	b8 03 00 00 00       	mov    eax,0x3
  20b669:	0f 05                	syscall 
            switch (err) {
  20b66b:	48 83 f8 fc          	cmp    rax,0xfffffffffffffffc
  20b66f:	74 f3                	je     20b664 <openSelfDebugInfo+0xd74>
            const first = list.first orelse return null;
  20b671:	48 8b 05 b0 59 01 00 	mov    rax,QWORD PTR [rip+0x159b0]        # 221028 <emfile_promise_queue>
  20b678:	48 85 c0             	test   rax,rax
  20b67b:	0f 84 2f 06 00 00    	je     20bcb0 <openSelfDebugInfo+0x13c0>
            if (node.prev) |prev_node| {
  20b681:	48 8b 08             	mov    rcx,QWORD PTR [rax]
  20b684:	48 85 c9             	test   rcx,rcx
  20b687:	0f 84 bf 05 00 00    	je     20bc4c <openSelfDebugInfo+0x135c>
                prev_node.next = node.next;
  20b68d:	48 8b 50 08          	mov    rdx,QWORD PTR [rax+0x8]
  20b691:	48 89 51 08          	mov    QWORD PTR [rcx+0x8],rdx
            if (node.next) |next_node| {
  20b695:	48 8b 48 08          	mov    rcx,QWORD PTR [rax+0x8]
  20b699:	e9 b9 05 00 00       	jmp    20bc57 <openSelfDebugInfo+0x1367>
            st.debug_str = (try st.elf.findSection(".debug_str")) orelse return error.MissingDebugInfo;
  20b69e:	48 8b 84 24 28 03 00 	mov    rax,QWORD PTR [rsp+0x328]
  20b6a5:	00 
  20b6a6:	48 85 c0             	test   rax,rax
  20b6a9:	0f 84 2c 03 00 00    	je     20b9db <openSelfDebugInfo+0x10eb>
  20b6af:	48 89 45 70          	mov    QWORD PTR [rbp+0x70],rax
            st.debug_line = (try st.elf.findSection(".debug_line")) orelse return error.MissingDebugInfo;
  20b6b3:	48 8d 15 de 54 01 00 	lea    rdx,[rip+0x154de]        # 220b98 <__unnamed_48>
  20b6ba:	48 8d bc 24 10 03 00 	lea    rdi,[rsp+0x310]
  20b6c1:	00 
  20b6c2:	4c 89 fe             	mov    rsi,r15
  20b6c5:	e8 b6 3e 00 00       	call   20f580 <Elf_findSection>
  20b6ca:	66 83 bc 24 10 03 00 	cmp    WORD PTR [rsp+0x310],0x0
  20b6d1:	00 00 
  20b6d3:	0f 84 7c 03 00 00    	je     20ba55 <openSelfDebugInfo+0x1165>
        const bytes = @sliceToBytes(memory);
  20b6d9:	48 8b 45 48          	mov    rax,QWORD PTR [rbp+0x48]
  20b6dd:	48 c1 e0 06          	shl    rax,0x6
        if (bytes.len == 0) return;
  20b6e1:	74 26                	je     20b709 <openSelfDebugInfo+0xe19>
  20b6e3:	48 8b 7d 50          	mov    rdi,QWORD PTR [rbp+0x50]
        const bytes = @sliceToBytes(memory);
  20b6e7:	48 8b 4d 40          	mov    rcx,QWORD PTR [rbp+0x40]
        self.freeFn(self, non_const_ptr[0..bytes.len]);
  20b6eb:	48 8b 57 10          	mov    rdx,QWORD PTR [rdi+0x10]
  20b6ef:	48 89 8c 24 f0 00 00 	mov    QWORD PTR [rsp+0xf0],rcx
  20b6f6:	00 
  20b6f7:	48 89 84 24 f8 00 00 	mov    QWORD PTR [rsp+0xf8],rax
  20b6fe:	00 
  20b6ff:	48 8d b4 24 f0 00 00 	lea    rsi,[rsp+0xf0]
  20b706:	00 
  20b707:	ff d2                	call   rdx
  20b709:	80 7d 10 01          	cmp    BYTE PTR [rbp+0x10],0x1
  20b70d:	0f 85 92 1c 00 00    	jne    20d3a5 <openSelfDebugInfo+0x2ab5>
  20b713:	49 8b 07             	mov    rax,QWORD PTR [r15]
  20b716:	48 63 38             	movsxd rdi,DWORD PTR [rax]
  20b719:	b8 03 00 00 00       	mov    eax,0x3
  20b71e:	0f 05                	syscall 
  20b720:	48 83 f8 fc          	cmp    rax,0xfffffffffffffffc
  20b724:	74 f3                	je     20b719 <openSelfDebugInfo+0xe29>
            const first = list.first orelse return null;
  20b726:	48 8b 05 fb 58 01 00 	mov    rax,QWORD PTR [rip+0x158fb]        # 221028 <emfile_promise_queue>
  20b72d:	48 85 c0             	test   rax,rax
  20b730:	0f 84 6f 1c 00 00    	je     20d3a5 <openSelfDebugInfo+0x2ab5>
            if (node.prev) |prev_node| {
